
a908c83b-8b50-4f5d-8d62-709be5261d7b.elf:     file format elf64-littleaarch64
a908c83b-8b50-4f5d-8d62-709be5261d7b.elf
architecture: aarch64, flags 0x00000150:
HAS_SYMS, DYNAMIC, D_PAGED
start address 0x0000000000000520

Program Header:
    LOAD off    0x0000000000001000 vaddr 0x0000000000000000 paddr 0x0000000000000000 align 2**12
         filesz 0x0000000000018ff0 memsz 0x0000000000018ff0 flags r-x
    LOAD off    0x000000000001a000 vaddr 0x0000000000019000 paddr 0x0000000000019000 align 2**12
         filesz 0x000000000000064c memsz 0x000000000000bef8 flags rw-
 DYNAMIC off    0x000000000001a000 vaddr 0x0000000000019000 paddr 0x0000000000019000 align 2**3
         filesz 0x0000000000000110 memsz 0x0000000000000110 flags rw-
   STACK off    0x0000000000000000 vaddr 0x0000000000000000 paddr 0x0000000000000000 align 2**4
         filesz 0x0000000000000000 memsz 0x0000000000000000 flags rw-

Dynamic Section:
  HASH                 0x0000000000018c48
  GNU_HASH             0x0000000000018b10
  STRTAB               0x0000000000018c10
  SYMTAB               0x0000000000018b68
  STRSZ                0x0000000000000036
  SYMENT               0x0000000000000018
  DEBUG                0x0000000000000000
  RELA                 0x0000000000018c78
  RELASZ               0x0000000000000588
  RELAENT              0x0000000000000018
  FLAGS_1              0x0000000008000000
  RELACOUNT            0x0000000000000025
private flags = 0x0:

Sections:
Idx Name          Size      VMA               LMA               File off  Algn
  0 .text         000136c4  0000000000000000  0000000000000000  00001000  2**4
                  CONTENTS, ALLOC, LOAD, READONLY, CODE
  1 .eh_frame     00004024  00000000000136c8  00000000000136c8  000146c8  2**3
                  CONTENTS, ALLOC, LOAD, READONLY, DATA
  2 .rodata       00001419  00000000000176f0  00000000000176f0  000186f0  2**3
                  CONTENTS, ALLOC, LOAD, READONLY, DATA
  3 .gnu.hash     00000034  0000000000018b10  0000000000018b10  00019b10  2**3
                  CONTENTS, ALLOC, LOAD, READONLY, DATA
  4 .ta_head      00000020  0000000000018b48  0000000000018b48  00019b48  2**3
                  CONTENTS, ALLOC, LOAD, READONLY, DATA
  5 .dynsym       000000a8  0000000000018b68  0000000000018b68  00019b68  2**3
                  CONTENTS, ALLOC, LOAD, READONLY, DATA
  6 .dynstr       00000036  0000000000018c10  0000000000018c10  00019c10  2**0
                  CONTENTS, ALLOC, LOAD, READONLY, DATA
  7 .hash         00000030  0000000000018c48  0000000000018c48  00019c48  2**3
                  CONTENTS, ALLOC, LOAD, READONLY, DATA
  8 .rela.dyn     00000378  0000000000018c78  0000000000018c78  00019c78  2**3
                  CONTENTS, ALLOC, LOAD, READONLY, DATA
  9 .dynamic      00000110  0000000000019000  0000000000019000  0001a000  2**3
                  CONTENTS, ALLOC, LOAD, DATA
 10 .got          000000d0  0000000000019110  0000000000019110  0001a110  2**3
                  CONTENTS, ALLOC, LOAD, DATA
 11 .rela.got     00000210  00000000000191e0  00000000000191e0  0001a1e0  2**3
                  CONTENTS, ALLOC, LOAD, READONLY, DATA
 12 .data         0000025c  00000000000193f0  00000000000193f0  0001a3f0  2**3
                  CONTENTS, ALLOC, LOAD, DATA
 13 .bss          0000b8a8  0000000000019650  0000000000019650  0001a64c  2**3
                  ALLOC
 14 .debug_info   0002477b  0000000000000000  0000000000000000  0001a64c  2**0
                  CONTENTS, READONLY, DEBUGGING, OCTETS
 15 .debug_abbrev 0000511c  0000000000000000  0000000000000000  0003edc7  2**0
                  CONTENTS, READONLY, DEBUGGING, OCTETS
 16 .debug_loclists 000157d1  0000000000000000  0000000000000000  00043ee3  2**0
                  CONTENTS, READONLY, DEBUGGING, OCTETS
 17 .debug_aranges 000009e0  0000000000000000  0000000000000000  000596c0  2**4
                  CONTENTS, READONLY, DEBUGGING, OCTETS
 18 .debug_rnglists 00000ab7  0000000000000000  0000000000000000  0005a0a0  2**0
                  CONTENTS, READONLY, DEBUGGING, OCTETS
 19 .debug_macro  0001ac07  0000000000000000  0000000000000000  0005ab57  2**0
                  CONTENTS, READONLY, DEBUGGING, OCTETS
 20 .debug_line   0000f677  0000000000000000  0000000000000000  0007575e  2**0
                  CONTENTS, READONLY, DEBUGGING, OCTETS
 21 .debug_str    0001c5aa  0000000000000000  0000000000000000  00084dd5  2**0
                  CONTENTS, READONLY, DEBUGGING, OCTETS
 22 .debug_line_str 00000a02  0000000000000000  0000000000000000  000a137f  2**0
                  CONTENTS, READONLY, DEBUGGING, OCTETS
 23 .comment      0000002b  0000000000000000  0000000000000000  000a1d81  2**0
                  CONTENTS, READONLY
SYMBOL TABLE:
0000000000000000 l    d  .text	0000000000000000 .text
00000000000136c8 l    d  .eh_frame	0000000000000000 .eh_frame
00000000000176f0 l    d  .rodata	0000000000000000 .rodata
0000000000018b10 l    d  .gnu.hash	0000000000000000 .gnu.hash
0000000000018b48 l    d  .ta_head	0000000000000000 .ta_head
0000000000018b68 l    d  .dynsym	0000000000000000 .dynsym
0000000000018c10 l    d  .dynstr	0000000000000000 .dynstr
0000000000018c48 l    d  .hash	0000000000000000 .hash
0000000000018c78 l    d  .rela.dyn	0000000000000000 .rela.dyn
0000000000019000 l    d  .dynamic	0000000000000000 .dynamic
0000000000019110 l    d  .got	0000000000000000 .got
00000000000191e0 l    d  .rela.got	0000000000000000 .rela.got
00000000000193f0 l    d  .data	0000000000000000 .data
0000000000019650 l    d  .bss	0000000000000000 .bss
0000000000000000 l    d  .debug_info	0000000000000000 .debug_info
0000000000000000 l    d  .debug_abbrev	0000000000000000 .debug_abbrev
0000000000000000 l    d  .debug_loclists	0000000000000000 .debug_loclists
0000000000000000 l    d  .debug_aranges	0000000000000000 .debug_aranges
0000000000000000 l    d  .debug_rnglists	0000000000000000 .debug_rnglists
0000000000000000 l    d  .debug_macro	0000000000000000 .debug_macro
0000000000000000 l    d  .debug_line	0000000000000000 .debug_line
0000000000000000 l    d  .debug_str	0000000000000000 .debug_str
0000000000000000 l    d  .debug_line_str	0000000000000000 .debug_line_str
0000000000000000 l    d  .comment	0000000000000000 .comment
0000000000000000 l    df *ABS*	0000000000000000 memcpy.c
0000000000000000 l    df *ABS*	0000000000000000 aesgcm_ta.c
0000000000017bdc l     O .rodata	000000000000000c __func__.1
0000000000017be8 l     O .rodata	000000000000000c __func__.0
0000000000000000 l    df *ABS*	0000000000000000 user_ta_header.c
00000000000176f8 l     O .rodata	0000000000000004 __compound_literal.7
00000000000176fc l     O .rodata	0000000000000001 __compound_literal.6
0000000000017700 l     O .rodata	0000000000000004 __compound_literal.5
0000000000017704 l     O .rodata	0000000000000004 __compound_literal.4
0000000000017708 l     O .rodata	0000000000000004 __compound_literal.3
000000000001770c l     O .rodata	0000000000000001 __compound_literal.2
000000000001770d l     O .rodata	0000000000000001 __compound_literal.1
000000000001770e l     O .rodata	0000000000000001 __compound_literal.0
0000000000000000 l    df *ABS*	0000000000000000 stack_check.c
0000000000000000 l    df *ABS*	0000000000000000 trace.c
0000000000017d35 l     O .rodata	0000000000000005 lvl_strs.0
0000000000000000 l    df *ABS*	0000000000000000 snprintk.c
0000000000000a88 l     F .text	0000000000000bc4 kprintf.constprop.0
00000000000177d2 l     O .rodata	0000000000000011 hexdigits
00000000000177e3 l     O .rodata	0000000000000011 HEXDIGITS
0000000000000000 l    df *ABS*	0000000000000000 memchr.c
0000000000000000 l    df *ABS*	0000000000000000 strlen.c
0000000000000000 l    df *ABS*	0000000000000000 trace_ext.c
0000000000000000 l    df *ABS*	0000000000000000 tee_api.c
00000000000018c0 l     F .text	000000000000006c copy_param
000000000000192c l     F .text	0000000000000070 copy_gp11_param
000000000000199c l     F .text	0000000000000098 check_mem_access_rights_params
0000000000001a34 l     F .text	0000000000000044 buf_overlaps_no_share_heap
0000000000001a78 l     F .text	00000000000000a8 check_invoke_param
0000000000001b20 l     F .text	00000000000000a4 update_out_param
0000000000001bc4 l     F .text	00000000000000a8 update_out_gp11_param
0000000000001e3c l     F .text	000000000000019c map_tmp_param
0000000000019650 l     O .bss	0000000000000008 tee_api_instance_data
0000000000017730 l     O .rodata	000000000000000b __func__.0
0000000000000000 l    df *ABS*	0000000000000000 tee_api_objects.c
0000000000000000 l    df *ABS*	0000000000000000 tee_api_operations.c
00000000000044b8 l     F .text	000000000000011c __tee_alg_get_main_alg
00000000000045d4 l     F .text	0000000000000250 tee_buffer_update
0000000000004824 l     F .text	000000000000009c __tee_alg_get_class
00000000000048c0 l     F .text	00000000000000ec ae_update_helper
00000000000049ac l     F .text	000000000000005c reset_operation_state
0000000000004a08 l     F .text	00000000000001e4 set_operation_key2
0000000000017802 l     O .rodata	0000000000000012 __func__.0
0000000000000000 l    df *ABS*	0000000000000000 tee_api_panic.c
0000000000008ba8 l     F .text	000000000000001c check_access
0000000000008bcc l     F .text	0000000000000010 check_res.constprop.0
0000000000008d5c l     F .text	0000000000000024 __utee_check_attr_in_annotation.localalias
0000000000000000 l    df *ABS*	0000000000000000 tee_system_pta.c
0000000000008da4 l     F .text	0000000000000084 invoke_system_pta
0000000000017814 l     O .rodata	0000000000000010 uuid.2
0000000000017824 l     O .rodata	000000000000000a __func__.1
000000000001782e l     O .rodata	0000000000000017 __func__.0
0000000000019660 l     O .bss	0000000000000008 sess.3
0000000000000000 l    df *ABS*	0000000000000000 user_ta_entry.c
0000000000009060 l     F .text	00000000000000b0 _get_fn_array
0000000000009110 l     F .text	0000000000000090 _fini_iterate_phdr_cb
00000000000091a0 l     F .text	0000000000000028 ta_header_get_session
00000000000091c8 l     F .text	0000000000000070 to_utee_params
0000000000009238 l     F .text	000000000000005c from_utee_params
0000000000009294 l     F .text	0000000000000094 _init_iterate_phdr_cb
0000000000009484 l     F .text	0000000000000094 ta_header_remove_session
0000000000017e60 l     O .rodata	0000000000000016 __func__.0
0000000000019668 l     O .bss	0000000000000008 _num_mod_init
0000000000019670 l     O .bss	0000000000000001 init_done
0000000000019500 l     O .data	0000000000000010 ta_sessions
0000000000019510 l     O .data	0000000000000010 __phdr_info_head
0000000000000000 l    df *ABS*	0000000000000000 utee_syscalls_a64.o
0000000000000000 l    df *ABS*	0000000000000000 abort.c
0000000000000000 l    df *ABS*	0000000000000000 assert.c
0000000000000000 l    df *ABS*	0000000000000000 tee_api_arith_mpi.c
0000000000009ac4 l     F .text	0000000000000030 api_panic
0000000000009af4 l     F .text	0000000000000030 mpi_panic
0000000000009b24 l     F .text	0000000000000098 get_mpi
0000000000009bbc l     F .text	0000000000000064 copy_mpi_to_bigint
0000000000009c20 l     F .text	000000000000014c bigint_binary
0000000000009d6c l     F .text	0000000000000020 mpi_is_odd
0000000000009d8c l     F .text	0000000000000028 rng_read
0000000000009db4 l     F .text	0000000000000574 mpi_egcd
00000000000196d8 l     O .bss	0000000000003800 data.18
000000000000a860 l     F .text	00000000000001d0 bigint_binary_mod
0000000000017f6d l     O .rodata	0000000000000008 __func__.15
0000000000017f75 l     O .rodata	000000000000000e __func__.11
0000000000017f83 l     O .rodata	0000000000000009 __func__.2
0000000000017f8c l     O .rodata	0000000000000012 __func__.17
0000000000017f9e l     O .rodata	000000000000000f __func__.16
0000000000017fad l     O .rodata	000000000000001f __func__.14
0000000000017fcc l     O .rodata	0000000000000019 __func__.13
0000000000017fe5 l     O .rodata	0000000000000012 __func__.7
0000000000017ff7 l     O .rodata	0000000000000015 __func__.12
000000000001800c l     O .rodata	000000000000000e __func__.10
000000000001801a l     O .rodata	000000000000000e __func__.9
0000000000018028 l     O .rodata	000000000000000e __func__.8
0000000000018036 l     O .rodata	0000000000000011 __func__.6
0000000000018047 l     O .rodata	0000000000000018 __func__.5
000000000001805f l     O .rodata	0000000000000011 __func__.4
0000000000018070 l     O .rodata	000000000000001d __func__.3
000000000001808d l     O .rodata	0000000000000019 __func__.1
00000000000180a6 l     O .rodata	0000000000000015 __func__.0
0000000000000000 l    df *ABS*	0000000000000000 tee_api_property.c
000000000000bc2c l     F .text	000000000000006c propset_get
000000000000bc98 l     F .text	000000000000002c is_propset_pseudo_handle
000000000000bcc4 l     F .text	0000000000000140 propget_get_ext_prop
000000000000be04 l     F .text	00000000000001f8 propget_get_property
0000000000017858 l     O .rodata	0000000000000004 __compound_literal.3
000000000001785c l     O .rodata	0000000000000004 __compound_literal.2
0000000000017860 l     O .rodata	0000000000000004 __compound_literal.1
0000000000017864 l     O .rodata	0000000000000004 __compound_literal.0
0000000000000000 l    df *ABS*	0000000000000000 tcb.c
00000000000181cb l     O .rodata	0000000000000010 __func__.1
00000000000181db l     O .rodata	0000000000000010 __func__.0
000000000001ced8 l     O .bss	0000000000000008 _tls_size
000000000001cee0 l     O .bss	0000000000000008 _tcb
0000000000000000 l    df *ABS*	0000000000000000 base64.c
000000000001786c l     O .rodata	0000000000000041 base64_table
0000000000000000 l    df *ABS*	0000000000000000 bignum.c
000000000000d198 l     F .text	0000000000000064 mpi_get_digit
000000000000d1fc l     F .text	0000000000000068 mpi_select
000000000000d264 l     F .text	000000000000001c mpi_montmul.isra.0
000000000000d280 l     F .text	0000000000000078 mpi_montred
000000000000d488 l     F .text	000000000000006c mbedtls_mpi_resize_clear
000000000000df04 l     F .text	00000000000000a4 add_sub_mpi
000000000000ee80 l     F .text	00000000000000c4 mpi_check_small_factors
000000000000f854 l     F .text	00000000000002a4 mpi_miller_rabin
00000000000178b0 l     O .rodata	00000000000002a0 small_prime
0000000000017b50 l     O .rodata	0000000000000024 gcd_pairs
0000000000000000 l    df *ABS*	0000000000000000 bignum_core.c
0000000000000000 l    df *ABS*	0000000000000000 constant_time.c
00000000000116a4 l     F .text	0000000000000020 mbedtls_ct_uchar_mask_of_range
0000000000000000 l    df *ABS*	0000000000000000 platform_util.c
0000000000011e84 l     F .text	000000000000005c mbedtls_get_unaligned_uint32.localalias
0000000000011ee0 l     F .text	0000000000000020 mbedtls_put_unaligned_uint32.localalias
0000000000019580 l     O .data	0000000000000008 memset_func
0000000000000000 l    df *ABS*	0000000000000000 bget_malloc.c
0000000000012034 l     F .text	0000000000000024 myrand
0000000000012058 l     F .text	0000000000000010 _assert_trap
0000000000012068 l     F .text	0000000000000028 bget_buf_size.part.0
0000000000012090 l     F .text	0000000000000038 raw_malloc_return_hook.constprop.0
0000000000012928 l     F .text	0000000000000088 stats.constprop.0
00000000000189ea l     O .rodata	000000000000000e __func__.2
00000000000189f8 l     O .rodata	0000000000000005 __func__.9
00000000000189fd l     O .rodata	0000000000000006 __func__.8
0000000000018a03 l     O .rodata	0000000000000005 __func__.6
0000000000018a08 l     O .rodata	0000000000000006 __func__.7
0000000000018a0e l     O .rodata	0000000000000006 __func__.5
0000000000018a14 l     O .rodata	0000000000000007 __func__.4
0000000000018a1b l     O .rodata	000000000000000f __func__.3
0000000000018a2a l     O .rodata	0000000000000003 CSWTCH.111
0000000000018a2d l     O .rodata	0000000000000014 __func__.1
0000000000018a41 l     O .rodata	0000000000000013 __func__.0
0000000000019588 l     O .data	0000000000000008 next
000000000001cef0 l     O .bss	0000000000000008 bchain
0000000000019590 l     O .data	0000000000000038 mypoolset
00000000000195c8 l     O .data	0000000000000080 malloc_ctx
0000000000000000 l    df *ABS*	0000000000000000 snprintf.c
0000000000000000 l    df *ABS*	0000000000000000 memmove.c
0000000000000000 l    df *ABS*	0000000000000000 memset.c
0000000000000000 l    df *ABS*	0000000000000000 strcmp.c
0000000000000000 l    df *ABS*	0000000000000000 strlcpy.c
0000000000000000 l    df *ABS*	0000000000000000 mempool.c
0000000000018add l     O .rodata	0000000000000013 __func__.2
0000000000018af0 l     O .rodata	000000000000000b __func__.1
0000000000018afb l     O .rodata	000000000000000e __func__.0
0000000000000000 l    df *ABS*	0000000000000000 consttime_memcmp.c
0000000000000000 l    df *ABS*	0000000000000000 
0000000000019000 l     O *ABS*	0000000000000000 _DYNAMIC
0000000000019128 l     O *ABS*	0000000000000000 _GLOBAL_OFFSET_TABLE_
0000000000001850 g     F .text	0000000000000070 putchar
000000000000a4a8 g     F .text	0000000000000008 __GP11_TEE_BigIntConvertFromOctetString
00000000000032f4 g     F .text	0000000000000144 TEE_PopulateTransientObject
0000000000010d80 g     F .text	0000000000000070 mbedtls_mpi_core_add_if
0000000000006db8 g     F .text	0000000000000010 __GP11_TEE_AEInit
000000000000ba08 g     F .text	0000000000000004 TEE_BigIntConvertToFMM
000000000000b25c g     F .text	000000000000000c TEE_BigIntSquareMod
000000000000aa30 g     F .text	00000000000001a0 TEE_BigIntShiftRight
0000000000012f80 g     F .text	00000000000000d4 raw_malloc_add_pool
0000000000008f78 g     F .text	00000000000000e8 tee_invoke_supp_plugin
0000000000011194 g     F .text	00000000000000b0 mbedtls_mpi_core_fill_random
000000000000d3a0 g     F .text	00000000000000e8 mbedtls_mpi_grow
0000000000005ec8 g     F .text	0000000000000070 TEE_DigestUpdate
000000000000c960 g     F .text	0000000000000130 __GP11_TEE_GetPropertyName
0000000000002888 g     F .text	00000000000000f4 TEE_Realloc
0000000000010c68 g     F .text	00000000000000dc mbedtls_mpi_core_shift_r
0000000000005d00 g     F .text	0000000000000020 TEE_SetOperationKey2
0000000000006b40 g     F .text	00000000000000a4 __GP11_TEE_MACComputeFinal
0000000000008d84 g     F .text	0000000000000020 __utee_check_inout_annotation
0000000000012d30 g     F .text	0000000000000010 raw_free
0000000000001710 g     F .text	0000000000000100 printf
000000000000add4 g     F .text	000000000000002c TEE_BigIntAbs
0000000000006570 g     F .text	00000000000000a4 __GP11_TEE_CipherUpdate
000000000000357c g     F .text	000000000000004c TEE_InitRefAttribute
00000000000097b8 g     F .text	000000000000000c _utee_log
0000000000002274 g     F .text	0000000000000184 TEE_InvokeTACommand
0000000000003664 g     F .text	000000000000004c __GP11_TEE_InitValueAttribute
0000000000008bdc g     F .text	000000000000004c __utee_check_outbuf_annotation
0000000000010bb0 g     F .text	00000000000000b8 mbedtls_mpi_core_write_be
000000000000d30c g     F .text	0000000000000028 mbedtls_mpi_init_mempool
0000000000009938 g     F .text	000000000000000c _utee_cryp_random_number_generate
000000000000d9c4 g     F .text	0000000000000010 mbedtls_mpi_write_binary
00000000000070c4 g     F .text	0000000000000200 TEE_AEEncryptFinal
0000000000000960 g     F .text	0000000000000058 vsnprintk
000000000000e030 g     F .text	0000000000000078 mbedtls_mpi_sub_int
0000000000007b58 g     F .text	00000000000001ac __GP11_TEE_AsymmetricDecrypt
00000000000133e8 g     F .text	000000000000005c memmove
00000000000132bc g     F .text	00000000000000d4 snprintf
000000000000a7e0 g     F .text	0000000000000080 TEE_BigIntCmpS32
0000000000002594 g     F .text	0000000000000008 __GP11_TEE_MemMove
00000000000194f8 g     O .data	0000000000000008 __stack_chk_guard
0000000000011c14 g     F .text	0000000000000204 mbedtls_ct_rsaes_pkcs1_v15_unpadding
0000000000003618 g     F .text	000000000000004c TEE_InitValueAttribute
000000000000d4f4 g     F .text	0000000000000118 mbedtls_mpi_shrink
00000000000025ac g     F .text	0000000000000008 __GP11_TEE_MemFill
000000000000ae00 g     F .text	000000000000000c TEE_BigIntAdd
00000000000098d8 g     F .text	000000000000000c _utee_cryp_obj_restrict_usage
00000000000035c8 g     F .text	0000000000000050 __GP11_TEE_InitRefAttribute
0000000000017718 g     O .rodata	0000000000000008 ta_heap_size
0000000000003264 g     F .text	0000000000000090 TEE_ResetTransientObject
0000000000009980 g     F .text	000000000000000c _utee_asymm_operate
000000000000cf48 g     F .text	0000000000000018 _base64_enc_len
000000000000e318 g     F .text	000000000000020c mbedtls_mpi_read_string
0000000000003948 g     F .text	000000000000010c __GP11_TEE_GenerateKey
00000000000062f4 g     F .text	00000000000000e0 TEE_CipherInit
0000000000010e34 g     F .text	00000000000001cc mbedtls_mpi_core_mla
000000000000ae18 g     F .text	00000000000000e4 TEE_BigIntNeg
00000000000099d4 g     F .text	000000000000000c _utee_storage_free_enum
0000000000000000 g       .text	0000000000000000 __text_start
000000000000cb1c g     F .text	00000000000000e0 TEE_GetNextProperty
0000000000003eb8 g     F .text	0000000000000050 TEE_StartPersistentObjectEnumerator
000000000000dae4 g     F .text	0000000000000030 mbedtls_mpi_shift_r
00000000000132a4 g     F .text	0000000000000018 malloc_buffer_overlaps_heap
0000000000009884 g     F .text	000000000000000c _utee_hash_init
000000000000b244 g     F .text	000000000000000c TEE_BigIntSubMod
00000000000100c8 g     F .text	000000000000034c mbedtls_mpi_gen_prime
000000000000c68c g     F .text	000000000000009c TEE_GetPropertyAsBinaryBlock
000000000000d7cc g     F .text	000000000000002c mbedtls_mpi_get_bit
0000000000011244 g     F .text	00000000000000f8 mbedtls_mpi_core_random
0000000000017710 g     O .rodata	0000000000000008 __ta_no_share_heap_size
000000000000d958 g     F .text	000000000000005c mbedtls_mpi_read_binary
0000000000006cf4 g     F .text	00000000000000c4 TEE_AEInit
00000000000007b4 g     F .text	00000000000000e4 trace_printf
000000000000ef6c g     F .text	000000000000000c mbedtls_mpi_montmul
0000000000009a40 g     F .text	000000000000000c _utee_cache_operation
0000000000000000 g     F .text	00000000000000ec memcpy
0000000000011364 g     F .text	0000000000000260 mbedtls_mpi_core_exp_mod
000000000000ba0c g     F .text	00000000000000d4 TEE_BigIntConvertFromFMM
0000000000008bc4 g     F .text	0000000000000008 TEE_Panic
0000000000005d6c g     F .text	000000000000015c TEE_CopyOperation
0000000000001810 g     F .text	0000000000000040 puts
000000000000bae0 g     F .text	000000000000014c TEE_BigIntComputeFMM
0000000000013260 g     F .text	0000000000000014 malloc_get_stats
00000000000026d4 g     F .text	0000000000000028 TEE_GetREETime
0000000000013224 g     F .text	000000000000003c raw_malloc_get_stats
0000000000003dd8 g     F .text	0000000000000090 TEE_AllocatePersistentObjectEnumerator
00000000000193f0 g     O .data	0000000000000108 ta_props
000000000000762c g     F .text	00000000000001c0 TEE_AsymmetricEncrypt
0000000000002820 g     F .text	0000000000000008 __GP11_TEE_Malloc
000000000000212c g     F .text	0000000000000148 __GP11_TEE_OpenTASession
0000000000008c74 g     F .text	0000000000000030 __utee_check_instring_annotation
0000000000012ea4 g     F .text	000000000000001c malloc
000000000000c94c g     F .text	0000000000000004 TEE_FreePropertyEnumerator
0000000000011708 g     F .text	0000000000000010 mbedtls_ct_mpi_uint_mask
00000000000063d4 g     F .text	0000000000000008 __GP11_TEE_CipherInit
000000000000383c g     F .text	000000000000010c TEE_GenerateKey
0000000000013390 g     F .text	0000000000000058 vsnprintf
0000000000019648 g     O .data	0000000000000004 trace_level
0000000000003b38 g     F .text	0000000000000008 __GP11_TEE_OpenPersistentObject
000000000000a748 g     F .text	0000000000000098 TEE_BigIntCmp
00000000000176f0 g     O .rodata	0000000000000008 ta_num_props
00000000000126f4 g     F .text	00000000000000d0 bgetr
0000000000009998 g     F .text	000000000000000c _utee_storage_obj_open
00000000000025a0 g     F .text	0000000000000008 __GP11_TEE_MemCompare
0000000000013638 g     F .text	000000000000001c mempool_free
00000000000063dc g     F .text	0000000000000194 TEE_CipherUpdate
0000000000009890 g     F .text	000000000000000c _utee_hash_update
000000000000a4b0 g     F .text	00000000000000c8 TEE_BigIntConvertToOctetString
0000000000005900 g     F .text	00000000000001b0 TEE_GetOperationInfoMultiple
000000000000d8d8 g     F .text	0000000000000008 mbedtls_mpi_bitlen
000000000000abd8 g     F .text	0000000000000084 TEE_BigIntGetBit
0000000000017720 g     O .rodata	0000000000000003 trace_ext_prefix
00000000000099f8 g     F .text	000000000000000c _utee_storage_next_enum
0000000000012d20 g     F .text	0000000000000010 raw_malloc
00000000000123a8 g     F .text	0000000000000088 bgetz
0000000000011718 g     F .text	0000000000000018 mbedtls_ct_size_bool_eq
0000000000002584 g     F .text	000000000000000c TEE_GetInstanceData
00000000000025dc g     F .text	000000000000003c TEE_Wait
000000000000e0a8 g     F .text	00000000000001bc mbedtls_mpi_mul_mpi
000000000000abd0 g     F .text	0000000000000008 __GP11_TEE_BigIntShiftRight
0000000000011f5c g     F .text	0000000000000020 mbedtls_put_unaligned_uint64
000000000000298c g     F .text	0000000000000008 TEE_CacheFlush
0000000000000598 g     F .text	000000000000021c trace_vprintf
00000000000000f4 g     F .text	0000000000000004 TA_DestroyEntryPoint
000000000000d2f8 g     F .text	0000000000000014 mbedtls_mpi_init
00000000000099b0 g     F .text	000000000000000c _utee_storage_obj_del
000000000000d884 g     F .text	0000000000000054 mbedtls_mpi_lsb
000000000000682c g     F .text	00000000000000b0 __GP11_TEE_CipherDoFinal
0000000000009a6c g     F .text	0000000000000044 _assert_log
0000000000006fc4 g     F .text	0000000000000100 __GP11_TEE_AEUpdate
000000000000986c g     F .text	000000000000000c _utee_cryp_state_copy
000000000000b9e8 g     F .text	0000000000000008 TEE_BigIntFMMContextSizeInU32
0000000000008ebc g     F .text	00000000000000bc tee_unmap
0000000000006be4 g     F .text	0000000000000104 TEE_MACCompareFinal
000000000001174c g     F .text	0000000000000030 mbedtls_ct_uint_if
0000000000003d74 g     F .text	000000000000005c TEE_RenamePersistentObject
0000000000005f40 g     F .text	000000000000016c TEE_DigestDoFinal
0000000000003438 g     F .text	0000000000000144 __GP11_TEE_PopulateTransientObject
000000000000a328 g     F .text	0000000000000050 _TEE_MathAPI_Init
0000000000011f7c g     F .text	0000000000000098 mbedtls_xor
000000000000cbfc g     F .text	0000000000000240 __utee_tcb_init
000000000000dfa8 g     F .text	0000000000000008 mbedtls_mpi_add_mpi
0000000000009a4c g     F .text	0000000000000020 abort
000000000000faf8 g     F .text	0000000000000094 mbedtls_mpi_random
000000000000053c g     F .text	0000000000000030 __stack_chk_fail
0000000000008d3c g     F .text	0000000000000020 __utee_check_out_annotation
000000000001cef8 g     O .bss	0000000000008000 ta_heap
000000000000b268 g     F .text	0000000000000150 TEE_BigIntInvMod
0000000000005f38 g     F .text	0000000000000008 __GP11_TEE_DigestUpdate
0000000000009328 g     F .text	000000000000014c __utee_call_elf_init_fn
0000000000002af8 g     F .text	00000000000000c8 __GP11_TEE_GetObjectInfo
0000000000000100 g     F .text	0000000000000004 TA_CloseSessionEntryPoint
00000000000097f4 g     F .text	000000000000000c _utee_close_ta_session
000000000000b9b0 g     F .text	0000000000000008 __GP11_TEE_BigIntInitFMMContext
0000000000007994 g     F .text	00000000000001c4 TEE_AsymmetricDecrypt
0000000000002c70 g     F .text	00000000000000c0 __GP11_TEE_GetObjectInfo1
0000000000003a54 g     F .text	00000000000000e4 TEE_OpenPersistentObject
00000000000115f4 g     F .text	0000000000000028 mbedtls_mpi_core_check_zero_ct
000000000000dfb0 g     F .text	0000000000000008 mbedtls_mpi_sub_mpi
0000000000013654 g     F .text	0000000000000070 consttime_memcmp
00000000000097ac g     F .text	000000000000000c _utee_return
00000000000097c4 g     F .text	000000000000000c __utee_panic
00000000000116c4 g     F .text	0000000000000034 mbedtls_ct_memcmp
000000000000ce3c g     F .text	000000000000001c __tls_get_addr
0000000000000104 g     F .text	000000000000041c TA_InvokeCommandEntryPoint
0000000000009474 g     F .text	0000000000000010 __utee_call_elf_fini_fn
0000000000012f48 g     F .text	0000000000000014 free_wipe
0000000000013584 g     F .text	0000000000000064 mempool_alloc
00000000000097a0 g     F .text	000000000000000c _utee_panic
0000000000012f64 g     F .text	000000000000001c raw_malloc_init_ctx
00000000000135e8 g     F .text	0000000000000050 mempool_calloc
0000000000009a34 g     F .text	000000000000000c _utee_cryp_obj_generate_key
0000000000009a1c g     F .text	000000000000000c _utee_storage_obj_trunc
00000000000037a8 g     F .text	0000000000000094 TEE_CopyObjectAttributes
0000000000019520 g     O .data	0000000000000060 tee_props
0000000000009824 g     F .text	000000000000000c _utee_unmask_cancellation
000000000000c8f8 g     F .text	000000000000000c TEE_ResetPropertyEnumerator
0000000000012ec0 g     F .text	0000000000000020 calloc
00000000000026fc g     F .text	0000000000000124 TEE_Malloc
0000000000001db4 g     F .text	0000000000000088 TEE_CheckMemoryAccessRights
0000000000011e84 g     F .text	000000000000005c mbedtls_get_unaligned_uint32
000000000000c728 g     F .text	00000000000000e8 TEE_GetPropertyAsUUID
00000000000097d0 g     F .text	000000000000000c _utee_get_property
00000000000060ac g     F .text	00000000000000a4 __GP11_TEE_DigestDoFinal
000000000000acd4 g     F .text	00000000000000b0 TEE_BigIntSetBit
000000000000d764 g     F .text	0000000000000068 mbedtls_mpi_lset
0000000000005d20 g     F .text	000000000000004c __GP11_TEE_SetOperationKey2
0000000000004150 g     F .text	00000000000000c8 TEE_ReadObjectData
0000000000002e04 g     F .text	0000000000000104 TEE_GetObjectBufferAttribute
00000000000000f8 g     F .text	0000000000000008 TA_OpenSessionEntryPoint
00000000000115c4 g     F .text	0000000000000030 mbedtls_mpi_core_sub_int
0000000000004bec g     F .text	0000000000000040 TEE_FreeOperation
000000000000ce58 g     F .text	00000000000000f0 dl_iterate_phdr
0000000000024ef8 g       .bss	0000000000000000 __ftrace_buf_end
00000000000196d0 g     O .bss	0000000000000004 ta_param_types
000000000000ea44 g     F .text	0000000000000078 mbedtls_mpi_div_int
000000000000299c g     F .text	0000000000000050 __utee_from_attr
0000000000010b04 g     F .text	00000000000000ac mbedtls_mpi_core_write_le
000000000000ffe4 g     F .text	00000000000000e4 mbedtls_mpi_is_prime_ext
000000000000b908 g     F .text	0000000000000098 TEE_BigIntIsProbablePrime
0000000000011ee0 g     F .text	0000000000000020 mbedtls_put_unaligned_uint32
000000000000e264 g     F .text	00000000000000b4 mbedtls_mpi_mul_int
0000000000003d00 g     F .text	0000000000000048 TEE_CloseAndDeletePersistentObject1
000000000000ef7c g     F .text	0000000000000698 mbedtls_mpi_exp_mod
0000000000011928 g     F .text	00000000000000bc mbedtls_mpi_safe_cond_assign
000000000000bffc g     F .text	0000000000000264 TEE_GetPropertyAsString
0000000000011b1c g     F .text	00000000000000f8 mbedtls_mpi_lt_mpi_ct
000000000000739c g     F .text	00000000000001d4 TEE_AEDecryptFinal
000000000000a378 g     F .text	0000000000000060 TEE_BigIntInit
000000000000a578 g     F .text	0000000000000064 __GP11_TEE_BigIntConvertToOctetString
000000000000ad84 g     F .text	0000000000000050 TEE_BigIntAssign
0000000000008ca4 g     F .text	000000000000004c __utee_check_outstring_annotation
0000000000002590 g     F .text	0000000000000004 TEE_MemMove
0000000000012014 g     F .text	0000000000000020 mbedtls_platform_zeroize
000000000000a3e0 g     F .text	00000000000000c8 TEE_BigIntConvertFromOctetString
0000000000009974 g     F .text	000000000000000c _utee_authenc_dec_final
000000000000db14 g     F .text	000000000000009c mbedtls_mpi_cmp_abs
0000000000009a04 g     F .text	000000000000000c _utee_storage_obj_read
00000000000068dc g     F .text	00000000000000a4 TEE_MACInit
0000000000007d04 g     F .text	00000000000001a0 TEE_AsymmetricSignDigest
0000000000001698 g     F .text	000000000000002c memchr
0000000000001cf4 g     F .text	0000000000000060 TEE_UnmaskCancellation
0000000000002a3c g     F .text	00000000000000bc TEE_GetObjectInfo
0000000000010414 g     F .text	0000000000000420 mbedtls_mpi_self_test
0000000000008c28 g     F .text	000000000000004c __utee_check_gp11_outbuf_annotation
0000000000009a28 g     F .text	000000000000000c _utee_storage_obj_seek
0000000000006ef8 g     F .text	00000000000000cc TEE_AEUpdate
00000000000031d4 g     F .text	0000000000000090 TEE_FreeTransientObject
000000000001096c g     F .text	000000000000007c mbedtls_mpi_core_cond_swap
0000000000009818 g     F .text	000000000000000c _utee_check_access_rights
0000000000010a74 g     F .text	0000000000000090 mbedtls_mpi_core_read_be
00000000000023f8 g     F .text	0000000000000178 __GP11_TEE_InvokeTACommand
000000000000dc80 g     F .text	0000000000000078 mbedtls_mpi_cmp_int
000000000000d074 g     F .text	0000000000000124 _base64_dec
0000000000005880 g     F .text	000000000000002c __GP11_TEE_FreeOperation
00000000000099e0 g     F .text	000000000000000c _utee_storage_reset_enum
000000000001186c g     F .text	00000000000000bc mbedtls_ct_base64_dec_value
00000000000129b0 g     F .text	00000000000002d4 bget_main_test
00000000000086e4 g     F .text	000000000000005c rand
0000000000008d5c g     F .text	0000000000000024 __utee_check_attr_in_annotation
000000000000995c g     F .text	000000000000000c _utee_authenc_update_payload
00000000000058ac g     F .text	0000000000000054 TEE_GetOperationInfo
000000000000b1cc g     F .text	000000000000006c TEE_BigIntMod
000000000000eb70 g     F .text	000000000000009c mbedtls_mpi_mod_int
0000000000007ea4 g     F .text	00000000000001a0 __GP11_TEE_AsymmetricSignDigest
000000000000d8fc g     F .text	000000000000005c mbedtls_mpi_read_binary_le
000000000000b018 g     F .text	00000000000001b4 TEE_BigIntDiv
00000000000098f0 g     F .text	000000000000000c _utee_cryp_obj_alloc
0000000000024ef8 g       .bss	0000000000000000 __ftrace_buf_start
0000000000013484 g     F .text	0000000000000038 strlcpy
00000000000117b8 g     F .text	00000000000000b4 mbedtls_ct_base64_enc_char
000000000000d60c g     F .text	00000000000000cc mbedtls_mpi_copy
0000000000010834 g     F .text	0000000000000028 mbedtls_mpi_core_clz
0000000000008740 g     F .text	0000000000000468 TEE_IsAlgorithmSupported
0000000000012c84 g     F .text	0000000000000018 malloc_reset_stats
000000000000c810 g     F .text	00000000000000e8 TEE_GetPropertyAsIdentity
000000000000164c g     F .text	000000000000004c __vsprintf
000000000000c4bc g     F .text	00000000000000e8 TEE_GetPropertyAsU64
0000000000009854 g     F .text	000000000000000c _utee_set_ta_time
0000000000009800 g     F .text	000000000000000c _utee_invoke_ta_command
0000000000011e6c g     F .text	0000000000000018 mbedtls_put_unaligned_uint16
0000000000002d30 g     F .text	0000000000000044 TEE_RestrictObjectUsage1
0000000000012ee0 g     F .text	000000000000001c realloc
000000000000d6d8 g     F .text	000000000000008c mbedtls_mpi_swap
00000000000134bc g     F .text	00000000000000c8 mempool_alloc_pool
000000000000aefc g     F .text	0000000000000114 TEE_BigIntMul
0000000000005b3c g     F .text	000000000000003c TEE_ResetOperation
0000000000012f5c g     F .text	0000000000000008 raw_malloc_get_ctx_size
000000000000d9d4 g     F .text	0000000000000110 mbedtls_mpi_shift_l
000000000000dbb0 g     F .text	00000000000000d0 mbedtls_mpi_cmp_mpi
00000000000025a8 g     F .text	0000000000000004 TEE_MemFill
0000000000013274 g     F .text	0000000000000018 malloc_add_pool
0000000000006988 g     F .text	00000000000000a0 TEE_MACUpdate
0000000000000588 g     F .text	0000000000000010 trace_get_level
000000000000dcf8 g     F .text	00000000000000f8 mbedtls_mpi_add_abs
0000000000002d74 g     F .text	0000000000000090 TEE_RestrictObjectUsage
000000000000b9c0 g     F .text	0000000000000010 TEE_BigIntFMMSizeInU32
000000000000c2fc g     F .text	00000000000000d8 TEE_GetPropertyAsBool
0000000000012db0 g     F .text	00000000000000f4 raw_realloc
000000000000b9a0 g     F .text	0000000000000004 TEE_BigIntInitFMM
00000000000030dc g     F .text	0000000000000028 TEE_CloseObject
00000000000098a8 g     F .text	000000000000000c _utee_cipher_init
0000000000009518 g     F .text	0000000000000288 __utee_entry
000000000000c3d4 g     F .text	00000000000000e8 TEE_GetPropertyAsU32
00000000000136c4 g       .text	0000000000000000 __text_end
000000000000b3b8 g     F .text	0000000000000108 TEE_BigIntRelativePrime
000000000000eabc g     F .text	00000000000000b4 mbedtls_mpi_mod_mpi
0000000000011a9c g     F .text	0000000000000080 mbedtls_mpi_core_lt_ct
00000000000098cc g     F .text	000000000000000c _utee_cryp_obj_get_info
0000000000010df0 g     F .text	0000000000000044 mbedtls_mpi_core_sub
00000000000127c4 g     F .text	00000000000000d0 bpool
000000000000c904 g     F .text	0000000000000048 TEE_AllocatePropertyEnumerator
0000000000009860 g     F .text	000000000000000c _utee_cryp_state_alloc
0000000000001c94 g     F .text	0000000000000060 TEE_GetCancellationFlag
0000000000003c84 g     F .text	000000000000007c __GP11_TEE_CreatePersistentObject
0000000000011e18 g     F .text	0000000000000054 mbedtls_get_unaligned_uint16
000000000000f614 g     F .text	00000000000001d8 mbedtls_mpi_gcd
0000000000002690 g     F .text	0000000000000044 TEE_SetTAPersistentTime
000000000000d9b4 g     F .text	0000000000000010 mbedtls_mpi_write_binary_le
0000000000013444 g     F .text	000000000000001c memset
0000000000012c9c g     F .text	0000000000000084 raw_memalign
0000000000002618 g     F .text	0000000000000078 TEE_GetTAPersistentTime
0000000000005cc4 g     F .text	000000000000003c __GP11_TEE_SetOperationKey
00000000000072c4 g     F .text	00000000000000d8 __GP11_TEE_AEEncryptFinal
0000000000011f00 g     F .text	000000000000005c mbedtls_get_unaligned_uint64
0000000000000898 g     F .text	0000000000000004 dhex_dump
00000000000108b0 g     F .text	0000000000000034 mbedtls_mpi_core_bigendian_to_host
0000000000003b40 g     F .text	0000000000000144 TEE_CreatePersistentObject
0000000000001d54 g     F .text	0000000000000060 TEE_MaskCancellation
0000000000006dc8 g     F .text	000000000000009c TEE_AEUpdateAAD
0000000000004334 g     F .text	000000000000005c TEE_TruncateObjectData
00000000000098e4 g     F .text	000000000000000c _utee_cryp_obj_get_attr
0000000000002bc0 g     F .text	00000000000000b0 TEE_GetObjectInfo1
00000000000098c0 g     F .text	000000000000000c _utee_cipher_final
000000000000056c g     F .text	000000000000001c trace_set_level
000000000001161c g     F .text	000000000000001c mbedtls_mpi_core_to_mont_rep
0000000000002fa4 g     F .text	0000000000000138 TEE_GetObjectValueAttribute
0000000000005b78 g     F .text	000000000000014c TEE_SetOperationKey
0000000000011730 g     F .text	000000000000001c mbedtls_ct_mpi_uint_lt
0000000000002f08 g     F .text	000000000000009c __GP11_TEE_GetObjectBufferAttribute
0000000000009878 g     F .text	000000000000000c _utee_cryp_state_free
0000000000013460 g     F .text	0000000000000024 strcmp
00000000000097e8 g     F .text	000000000000000c _utee_open_ta_session
000000000000a690 g     F .text	00000000000000b8 TEE_BigIntConvertToS32
000000000000ae0c g     F .text	000000000000000c TEE_BigIntSub
00000000000044b0 g     F .text	0000000000000008 __GP11_TEE_SeekObjectData
0000000000000534 g     F .text	0000000000000008 tahead_get_trace_level
00000000000099ec g     F .text	000000000000000c _utee_storage_start_enum
0000000000004398 g     F .text	0000000000000118 TEE_SeekObjectData
0000000000008e28 g     F .text	0000000000000094 tee_map_zi
0000000000004390 g     F .text	0000000000000008 __GP11_TEE_TruncateObjectData
000000000000ef78 g     F .text	0000000000000004 mbedtls_mpi_montred
0000000000012efc g     F .text	0000000000000020 memalign
00000000000116f8 g     F .text	0000000000000010 mbedtls_ct_uint_mask
0000000000006614 g     F .text	0000000000000218 TEE_CipherDoFinal
000000000000a3d8 g     F .text	0000000000000008 __GP11_TEE_BigIntInit
000000000000a5dc g     F .text	00000000000000b4 TEE_BigIntConvertFromS32
000000000000dfb8 g     F .text	0000000000000078 mbedtls_mpi_add_int
0000000000009968 g     F .text	000000000000000c _utee_authenc_enc_final
000000000001328c g     F .text	0000000000000018 malloc_buffer_is_within_alloced
00000000000098fc g     F .text	000000000000000c _utee_cryp_obj_close
00000000000086dc g     F .text	0000000000000008 __GP11_TEE_GenerateRandom
000000000000b9ac g     F .text	0000000000000004 TEE_BigIntInitFMMContext
0000000000009830 g     F .text	000000000000000c _utee_mask_cancellation
0000000000019688 g     O .bss	0000000000000008 __ta_no_share_malloc_ctx
00000000000099bc g     F .text	000000000000000c _utee_storage_obj_rename
0000000000004024 g     F .text	000000000000012c __GP11_TEE_GetNextPersistentObject
00000000000042b4 g     F .text	0000000000000078 TEE_WriteObjectData
0000000000003e90 g     F .text	0000000000000028 TEE_ResetPersistentObjectEnumerator
0000000000002570 g     F .text	0000000000000008 __GP11_TEE_CheckMemoryAccessRights
000000000000b010 g     F .text	0000000000000008 TEE_BigIntSquare
0000000000009a10 g     F .text	000000000000000c _utee_storage_obj_write
000000000001085c g     F .text	0000000000000054 mbedtls_mpi_core_bitlen
00000000000000ec g     F .text	0000000000000008 TA_CreateEntryPoint
0000000000000520 g     F .text	0000000000000014 __ta_entry
000000000001cef8 g     O .bss	0000000000000000 __ta_no_share_heap
0000000000009950 g     F .text	000000000000000c _utee_authenc_update_aad
000000000000ef44 g     F .text	0000000000000028 mbedtls_mpi_montg_init
00000000000009b8 g     F .text	00000000000000d0 snprintk
000000000000ac5c g     F .text	0000000000000078 TEE_BigIntGetBitCount
0000000000009920 g     F .text	000000000000000c _utee_cryp_obj_copy
0000000000006e64 g     F .text	0000000000000094 __GP11_TEE_AEUpdateAAD
000000000000b250 g     F .text	000000000000000c TEE_BigIntMulMod
000000000000fb8c g     F .text	0000000000000458 mbedtls_mpi_inv_mod
0000000000008d80 g     F .text	0000000000000004 __utee_check_gp11_attr_in_annotation
000000000000835c g     F .text	00000000000001b0 TEE_DeriveKey
0000000000019690 g     O .bss	0000000000000040 ta_params
000000000000e524 g     F .text	0000000000000520 mbedtls_mpi_div_mpi
0000000000008cf0 g     F .text	000000000000004c __utee_check_gp11_outstring_annotation
000000000000d8e0 g     F .text	000000000000001c mbedtls_mpi_size
00000000000120c8 g     F .text	00000000000002e0 bget
0000000000004218 g     F .text	000000000000009c __GP11_TEE_ReadObjectData
00000000000031b8 g     F .text	000000000000001c TEE_AllocateTransientObject
0000000000006a28 g     F .text	0000000000000008 __GP11_TEE_MACUpdate
000000000000b9f0 g     F .text	0000000000000018 __GP11_TEE_BigIntFMMContextSizeInU32
000000000000c950 g     F .text	0000000000000010 TEE_StartPropertyEnumerator
000000000000983c g     F .text	000000000000000c _utee_wait
000000000000d7f8 g     F .text	000000000000008c mbedtls_mpi_set_bit
00000000000108e4 g     F .text	0000000000000064 mbedtls_mpi_core_uint_le_mpi
0000000000002828 g     F .text	0000000000000060 TEE_Free
0000000000002994 g     F .text	0000000000000008 TEE_CacheInvalidate
0000000000009ab0 g     F .text	0000000000000014 _assert_break
000000000001133c g     F .text	0000000000000028 mbedtls_mpi_core_exp_mod_working_limbs
000000000000b238 g     F .text	000000000000000c TEE_BigIntAddMod
000000000001177c g     F .text	000000000000003c mbedtls_ct_mpi_uint_cond_assign
000000000000b9a4 g     F .text	0000000000000008 __GP11_TEE_BigIntInitFMM
0000000000009848 g     F .text	000000000000000c _utee_get_time
0000000000010d44 g     F .text	000000000000003c mbedtls_mpi_core_add
000000000000ca90 g     F .text	000000000000008c TEE_GetPropertyName
000000000000297c g     F .text	0000000000000008 __GP11_TEE_Realloc
0000000000004c2c g     F .text	0000000000000c54 TEE_AllocateOperation
0000000000009914 g     F .text	000000000000000c _utee_cryp_obj_populate
00000000000109e8 g     F .text	000000000000008c mbedtls_mpi_core_read_le
0000000000005ab0 g     F .text	000000000000008c __GP11_TEE_GetOperationInfoMultiple
00000000000029ec g     F .text	0000000000000050 __utee_from_gp11_attr
00000000000086bc g     F .text	0000000000000020 TEE_GenerateRandom
0000000000006150 g     F .text	00000000000001a4 TEE_DigestExtract
000000000000259c g     F .text	0000000000000004 TEE_MemCompare
00000000000098b4 g     F .text	000000000000000c _utee_cipher_update
000000000000089c g     F .text	00000000000000c4 __vsnprintf
0000000000019678 g     O .bss	0000000000000010 __elf_phdr_info
0000000000003e68 g     F .text	0000000000000028 TEE_FreePersistentObjectEnumerator
0000000000001fd8 g     F .text	0000000000000154 TEE_OpenTASession
000000000000850c g     F .text	00000000000001b0 __GP11_TEE_DeriveKey
0000000000011638 g     F .text	000000000000006c mbedtls_mpi_core_from_mont_rep
0000000000007570 g     F .text	00000000000000bc __GP11_TEE_AEDecryptFinal
00000000000016e0 g     F .text	0000000000000028 trace_ext_puts
000000000000c260 g     F .text	000000000000009c __GP11_TEE_GetPropertyAsString
00000000000130d4 g     F .text	0000000000000150 raw_malloc_buffer_is_within_alloced
0000000000001708 g     F .text	0000000000000008 trace_ext_get_thread_id
0000000000013054 g     F .text	0000000000000080 raw_malloc_buffer_overlaps_heap
0000000000003d48 g     F .text	000000000000002c TEE_CloseAndDeletePersistentObject
000000000000992c g     F .text	000000000000000c _utee_cryp_derive_key
000000000000d334 g     F .text	000000000000006c mbedtls_mpi_free
0000000000006980 g     F .text	0000000000000008 __GP11_TEE_MACInit
00000000000081d0 g     F .text	000000000000018c __GP11_TEE_AsymmetricVerifyDigest
0000000000009908 g     F .text	000000000000000c _utee_cryp_obj_reset
0000000000002984 g     F .text	0000000000000008 TEE_CacheClean
00000000000097dc g     F .text	000000000000000c _utee_get_property_name_to_index
0000000000011034 g     F .text	00000000000000f8 mbedtls_mpi_core_montmul
0000000000012d40 g     F .text	0000000000000070 raw_calloc
000000000000cf60 g     F .text	0000000000000114 _base64_enc
00000000000119e4 g     F .text	00000000000000b8 mbedtls_mpi_safe_cond_swap
0000000000009944 g     F .text	000000000000000c _utee_authenc_init
00000000000036b0 g     F .text	00000000000000f8 TEE_CopyObjectAttributes1
0000000000003dd0 g     F .text	0000000000000008 __GP11_TEE_RenamePersistentObject
00000000000016c4 g     F .text	000000000000001c strlen
000000000000b698 g     F .text	0000000000000270 TEE_BigIntComputeExtendedGcd
00000000000099c8 g     F .text	000000000000000c _utee_storage_alloc_enum
000000000000b4c0 g     F .text	00000000000001d8 TEE_BigIntExpMod
00000000000025b4 g     F .text	0000000000000028 TEE_GetSystemTime
000000000000998c g     F .text	000000000000000c _utee_asymm_verify
0000000000018b48 g     O .ta_head	0000000000000020 ta_head
0000000000012430 g     F .text	00000000000002c4 brel
000000000000c5a4 g     F .text	00000000000000e8 __GP11_TEE_GetPropertyAsBinaryBlock
000000000000ddf0 g     F .text	0000000000000114 mbedtls_mpi_sub_abs
000000000000f7ec g     F .text	0000000000000068 mbedtls_mpi_fill_random
0000000000003104 g     F .text	00000000000000b4 __GP11_TEE_AllocateTransientObject
0000000000002578 g     F .text	000000000000000c TEE_SetInstanceData
00000000000077ec g     F .text	00000000000001a8 __GP11_TEE_AsymmetricEncrypt
000000000000980c g     F .text	000000000000000c _utee_get_cancellation_flag
0000000000010948 g     F .text	0000000000000024 mbedtls_mpi_core_cond_assign
000000000000ec0c g     F .text	0000000000000274 mbedtls_mpi_write_string
0000000000012f1c g     F .text	0000000000000018 aligned_alloc
0000000000011000 g     F .text	0000000000000034 mbedtls_mpi_core_montmul_init
0000000000003f08 g     F .text	000000000000011c TEE_GetNextPersistentObject
000000000000b9b8 g     F .text	0000000000000008 TEE_BigIntInitFMMContext1
0000000000006ce8 g     F .text	000000000000000c __GP11_TEE_MACCompareFinal
000000000000432c g     F .text	0000000000000008 __GP11_TEE_WriteObjectData
000000000001112c g     F .text	0000000000000068 mbedtls_mpi_core_get_mont_r2_unsafe
0000000000001c6c g     F .text	0000000000000028 TEE_CloseTASession
0000000000008044 g     F .text	000000000000018c TEE_AsymmetricVerifyDigest
00000000000099a4 g     F .text	000000000000000c _utee_storage_obj_create
000000000000b9d0 g     F .text	0000000000000018 __GP11_TEE_BigIntFMMSizeInU32
0000000000012f34 g     F .text	0000000000000014 free
0000000000012894 g     F .text	0000000000000094 bstats
0000000000006a30 g     F .text	0000000000000110 TEE_MACComputeFinal
000000000001cee8 g     O .bss	0000000000000008 mbedtls_mpi_mempool
000000000000989c g     F .text	000000000000000c _utee_hash_final



Disassembly of section .text:

0000000000000000 <memcpy>:
memcpy():
/optee/optee_os/lib/libutils/isoc/newlib/memcpy.c:106
       0:	f1007c5f 	cmp	x2, #0x1f
       4:	54000629 	b.ls	c8 <memcpy+0xc8>  // b.plast
/optee/optee_os/lib/libutils/isoc/newlib/memcpy.c:106 (discriminator 1)
       8:	aa010005 	orr	x5, x0, x1
       c:	f24008a5 	ands	x5, x5, #0x7
      10:	54000641 	b.ne	d8 <memcpy+0xd8>  // b.any
      14:	d1008048 	sub	x8, x2, #0x20
/optee/optee_os/lib/libutils/isoc/newlib/memcpy.c:108
      18:	aa0103e3 	mov	x3, x1
      1c:	927be908 	and	x8, x8, #0xffffffffffffffe0
/optee/optee_os/lib/libutils/isoc/newlib/memcpy.c:107
      20:	aa0003e4 	mov	x4, x0
      24:	91008108 	add	x8, x8, #0x20
      28:	8b080007 	add	x7, x0, x8
      2c:	d503201f 	nop
/optee/optee_os/lib/libutils/isoc/newlib/memcpy.c:112
      30:	f9400066 	ldr	x6, [x3]
      34:	f9000086 	str	x6, [x4]
/optee/optee_os/lib/libutils/isoc/newlib/memcpy.c:113
      38:	91008063 	add	x3, x3, #0x20
      3c:	91008084 	add	x4, x4, #0x20
      40:	f85e8066 	ldur	x6, [x3, #-24]
      44:	f81e8086 	stur	x6, [x4, #-24]
/optee/optee_os/lib/libutils/isoc/newlib/memcpy.c:114
      48:	f85f0066 	ldur	x6, [x3, #-16]
      4c:	f81f0086 	stur	x6, [x4, #-16]
/optee/optee_os/lib/libutils/isoc/newlib/memcpy.c:115
      50:	f85f8066 	ldur	x6, [x3, #-8]
      54:	f81f8086 	stur	x6, [x4, #-8]
/optee/optee_os/lib/libutils/isoc/newlib/memcpy.c:111
      58:	eb0400ff 	cmp	x7, x4
      5c:	54fffea1 	b.ne	30 <memcpy+0x30>  // b.any
/optee/optee_os/lib/libutils/isoc/newlib/memcpy.c:115
      60:	8b080021 	add	x1, x1, x8
/optee/optee_os/lib/libutils/isoc/newlib/memcpy.c:116
      64:	92401043 	and	x3, x2, #0x1f
/optee/optee_os/lib/libutils/isoc/newlib/memcpy.c:120
      68:	f27d045f 	tst	x2, #0x18
      6c:	540003c0 	b.eq	e4 <memcpy+0xe4>  // b.none
/optee/optee_os/lib/libutils/isoc/newlib/memcpy.c:121
      70:	f8656826 	ldr	x6, [x1, x5]
      74:	f8256886 	str	x6, [x4, x5]
/optee/optee_os/lib/libutils/isoc/newlib/memcpy.c:120
      78:	910020a5 	add	x5, x5, #0x8
      7c:	cb050066 	sub	x6, x3, x5
      80:	f1001cdf 	cmp	x6, #0x7
      84:	54ffff68 	b.hi	70 <memcpy+0x70>  // b.pmore
      88:	d1002063 	sub	x3, x3, #0x8
/optee/optee_os/lib/libutils/isoc/newlib/memcpy.c:122
      8c:	92400842 	and	x2, x2, #0x7
      90:	927df063 	and	x3, x3, #0xfffffffffffffff8
/optee/optee_os/lib/libutils/isoc/newlib/memcpy.c:130
      94:	d1000446 	sub	x6, x2, #0x1
      98:	91002063 	add	x3, x3, #0x8
/optee/optee_os/lib/libutils/isoc/newlib/memcpy.c:121
      9c:	8b030084 	add	x4, x4, x3
      a0:	8b030021 	add	x1, x1, x3
/optee/optee_os/lib/libutils/isoc/newlib/memcpy.c:130
      a4:	b4000102 	cbz	x2, c4 <memcpy+0xc4>
/optee/optee_os/lib/libutils/isoc/newlib/memcpy.c:99
      a8:	d2800002 	mov	x2, #0x0                   	// #0
      ac:	d503201f 	nop
/optee/optee_os/lib/libutils/isoc/newlib/memcpy.c:131
      b0:	38626825 	ldrb	w5, [x1, x2]
/optee/optee_os/lib/libutils/isoc/newlib/memcpy.c:130
      b4:	eb0200df 	cmp	x6, x2
/optee/optee_os/lib/libutils/isoc/newlib/memcpy.c:131
      b8:	38226885 	strb	w5, [x4, x2]
/optee/optee_os/lib/libutils/isoc/newlib/memcpy.c:130
      bc:	91000442 	add	x2, x2, #0x1
      c0:	54ffff81 	b.ne	b0 <memcpy+0xb0>  // b.any
/optee/optee_os/lib/libutils/isoc/newlib/memcpy.c:135
      c4:	d65f03c0 	ret
/optee/optee_os/lib/libutils/isoc/newlib/memcpy.c:99
      c8:	aa0003e4 	mov	x4, x0
/optee/optee_os/lib/libutils/isoc/newlib/memcpy.c:130
      cc:	d1000446 	sub	x6, x2, #0x1
      d0:	b5fffec2 	cbnz	x2, a8 <memcpy+0xa8>
/optee/optee_os/lib/libutils/isoc/newlib/memcpy.c:135
      d4:	d65f03c0 	ret
/optee/optee_os/lib/libutils/isoc/newlib/memcpy.c:130
      d8:	d1000446 	sub	x6, x2, #0x1
/optee/optee_os/lib/libutils/isoc/newlib/memcpy.c:99
      dc:	aa0003e4 	mov	x4, x0
      e0:	17fffff2 	b	a8 <memcpy+0xa8>
/optee/optee_os/lib/libutils/isoc/newlib/memcpy.c:120
      e4:	aa0303e2 	mov	x2, x3
      e8:	17fffff9 	b	cc <memcpy+0xcc>

00000000000000ec <TA_CreateEntryPoint>:
TA_CreateEntryPoint():
/workspace/aes_gcm_demo/aesgcm_ta/aesgcm_ta.c:29
      ec:	52800000 	mov	w0, #0x0                   	// #0
      f0:	d65f03c0 	ret

00000000000000f4 <TA_DestroyEntryPoint>:
TA_DestroyEntryPoint():
/workspace/aes_gcm_demo/aesgcm_ta/aesgcm_ta.c:33
      f4:	d65f03c0 	ret

00000000000000f8 <TA_OpenSessionEntryPoint>:
TA_OpenSessionEntryPoint():
/workspace/aes_gcm_demo/aesgcm_ta/aesgcm_ta.c:43
      f8:	52800000 	mov	w0, #0x0                   	// #0
      fc:	d65f03c0 	ret

0000000000000100 <TA_CloseSessionEntryPoint>:
TA_CloseSessionEntryPoint():
/workspace/aes_gcm_demo/aesgcm_ta/aesgcm_ta.c:48
     100:	d65f03c0 	ret

0000000000000104 <TA_InvokeCommandEntryPoint>:
TA_InvokeCommandEntryPoint():
/workspace/aes_gcm_demo/aesgcm_ta/aesgcm_ta.c:53
     104:	a9b47bfd 	stp	x29, x30, [sp, #-192]!
     108:	b00000c0 	adrp	x0, 19000 <_DYNAMIC>
     10c:	2a0203e5 	mov	w5, w2
     110:	910003fd 	mov	x29, sp
     114:	f9409800 	ldr	x0, [x0, #304]
     118:	a90153f3 	stp	x19, x20, [sp, #16]
     11c:	2a0103f4 	mov	w20, w1
     120:	a9025bf5 	stp	x21, x22, [sp, #32]
     124:	a90363f7 	stp	x23, x24, [sp, #48]
     128:	a9046bf9 	stp	x25, x26, [sp, #64]
     12c:	a90573fb 	stp	x27, x28, [sp, #80]
     130:	f9400001 	ldr	x1, [x0]
     134:	f9005fe1 	str	x1, [sp, #184]
     138:	d2800001 	mov	x1, #0x0                   	// #0
/workspace/aes_gcm_demo/aesgcm_ta/aesgcm_ta.c:56
     13c:	7100069f 	cmp	w20, #0x1
     140:	54000180 	b.eq	170 <TA_InvokeCommandEntryPoint+0x6c>  // b.none
     144:	71000a9f 	cmp	w20, #0x2
     148:	54000f40 	b.eq	330 <TA_InvokeCommandEntryPoint+0x22c>  // b.none
cmd_encrypt():
/workspace/aes_gcm_demo/aesgcm_ta/aesgcm_ta.c:76
     14c:	129fff33 	mov	w19, #0xffff0006            	// #-65530
TA_InvokeCommandEntryPoint():
/workspace/aes_gcm_demo/aesgcm_ta/aesgcm_ta.c:64
     150:	b00000c0 	adrp	x0, 19000 <_DYNAMIC>
     154:	f9409800 	ldr	x0, [x0, #304]
     158:	f9405fe2 	ldr	x2, [sp, #184]
     15c:	f9400001 	ldr	x1, [x0]
     160:	eb010042 	subs	x2, x2, x1
     164:	d2800001 	mov	x1, #0x0                   	// #0
     168:	54001cc0 	b.eq	500 <TA_InvokeCommandEntryPoint+0x3fc>  // b.none
     16c:	940000f4 	bl	53c <__stack_chk_fail>
cmd_encrypt():
/workspace/aes_gcm_demo/aesgcm_ta/aesgcm_ta.c:74
     170:	528caaa0 	mov	w0, #0x6555                	// #25941
     174:	6b00005f 	cmp	w2, w0
     178:	54000140 	b.eq	1a0 <TA_InvokeCommandEntryPoint+0x9c>  // b.none
/workspace/aes_gcm_demo/aesgcm_ta/aesgcm_ta.c:75
     17c:	f00000a4 	adrp	x4, 17000 <__text_end+0x393c>
     180:	f00000a0 	adrp	x0, 17000 <__text_end+0x393c>
     184:	912dd084 	add	x4, x4, #0xb74
     188:	2a1403e3 	mov	w3, w20
     18c:	2a1403e2 	mov	w2, w20
     190:	912f7000 	add	x0, x0, #0xbdc
     194:	52800961 	mov	w1, #0x4b                  	// #75
     198:	94000187 	bl	7b4 <trace_printf>
     19c:	17ffffec 	b	14c <TA_InvokeCommandEntryPoint+0x48>
/workspace/aes_gcm_demo/aesgcm_ta/aesgcm_ta.c:84
     1a0:	a9425478 	ldp	x24, x21, [x3, #32]
/workspace/aes_gcm_demo/aesgcm_ta/aesgcm_ta.c:85
     1a4:	9100c076 	add	x22, x3, #0x30
/workspace/aes_gcm_demo/aesgcm_ta/aesgcm_ta.c:88
     1a8:	f94006c0 	ldr	x0, [x22, #8]
/workspace/aes_gcm_demo/aesgcm_ta/aesgcm_ta.c:80
     1ac:	a9405c7b 	ldp	x27, x23, [x3]
/workspace/aes_gcm_demo/aesgcm_ta/aesgcm_ta.c:88
     1b0:	910042b3 	add	x19, x21, #0x10
/workspace/aes_gcm_demo/aesgcm_ta/aesgcm_ta.c:82
     1b4:	a9416879 	ldp	x25, x26, [x3, #16]
/workspace/aes_gcm_demo/aesgcm_ta/aesgcm_ta.c:85
     1b8:	f940187c 	ldr	x28, [x3, #48]
/workspace/aes_gcm_demo/aesgcm_ta/aesgcm_ta.c:88
     1bc:	eb13001f 	cmp	x0, x19
     1c0:	54000182 	b.cs	1f0 <TA_InvokeCommandEntryPoint+0xec>  // b.hs, b.nlast
/workspace/aes_gcm_demo/aesgcm_ta/aesgcm_ta.c:89
     1c4:	2a1403e3 	mov	w3, w20
     1c8:	2a1403e2 	mov	w2, w20
     1cc:	f00000a4 	adrp	x4, 17000 <__text_end+0x393c>
     1d0:	52800b21 	mov	w1, #0x59                  	// #89
     1d4:	912e2884 	add	x4, x4, #0xb8a
     1d8:	f00000a0 	adrp	x0, 17000 <__text_end+0x393c>
     1dc:	912f7000 	add	x0, x0, #0xbdc
     1e0:	94000175 	bl	7b4 <trace_printf>
/workspace/aes_gcm_demo/aesgcm_ta/aesgcm_ta.c:90
     1e4:	f90006d3 	str	x19, [x22, #8]
cmd_decrypt():
/workspace/aes_gcm_demo/aesgcm_ta/aesgcm_ta.c:147
     1e8:	129ffdf3 	mov	w19, #0xffff0010            	// #-65520
     1ec:	17ffffd9 	b	150 <TA_InvokeCommandEntryPoint+0x4c>
cmd_encrypt():
/workspace/aes_gcm_demo/aesgcm_ta/aesgcm_ta.c:96
     1f0:	d2800200 	mov	x0, #0x10                  	// #16
do_aes_gcm_encrypt():
/workspace/aes_gcm_demo/aesgcm_ta/aesgcm_ta.c:175
     1f4:	52810201 	mov	w1, #0x810                 	// #2064
     1f8:	531d72e3 	lsl	w3, w23, #3
     1fc:	52800002 	mov	w2, #0x0                   	// #0
     200:	72a80001 	movk	w1, #0x4000, lsl #16
     204:	b9006fe3 	str	w3, [sp, #108]
cmd_encrypt():
/workspace/aes_gcm_demo/aesgcm_ta/aesgcm_ta.c:96
     208:	a90703f5 	stp	x21, x0, [sp, #112]
do_aes_gcm_encrypt():
/workspace/aes_gcm_demo/aesgcm_ta/aesgcm_ta.c:175
     20c:	910203e0 	add	x0, sp, #0x80
/workspace/aes_gcm_demo/aesgcm_ta/aesgcm_ta.c:172
     210:	a9087fff 	stp	xzr, xzr, [sp, #128]
cmd_encrypt():
/workspace/aes_gcm_demo/aesgcm_ta/aesgcm_ta.c:95
     214:	a90affff 	stp	xzr, xzr, [sp, #168]
do_aes_gcm_encrypt():
/workspace/aes_gcm_demo/aesgcm_ta/aesgcm_ta.c:175
     218:	94001285 	bl	4c2c <TEE_AllocateOperation>
     21c:	2a0003f3 	mov	w19, w0
/workspace/aes_gcm_demo/aesgcm_ta/aesgcm_ta.c:177
     220:	35000560 	cbnz	w0, 2cc <TA_InvokeCommandEntryPoint+0x1c8>
/workspace/aes_gcm_demo/aesgcm_ta/aesgcm_ta.c:179
     224:	b9406fe3 	ldr	w3, [sp, #108]
     228:	52800200 	mov	w0, #0x10                  	// #16
     22c:	910223e2 	add	x2, sp, #0x88
     230:	72b40000 	movk	w0, #0xa000, lsl #16
     234:	2a0303e1 	mov	w1, w3
     238:	94000be0 	bl	31b8 <TEE_AllocateTransientObject>
     23c:	2a0003f3 	mov	w19, w0
/workspace/aes_gcm_demo/aesgcm_ta/aesgcm_ta.c:180
     240:	35000460 	cbnz	w0, 2cc <TA_InvokeCommandEntryPoint+0x1c8>
/workspace/aes_gcm_demo/aesgcm_ta/aesgcm_ta.c:182
     244:	910243f3 	add	x19, sp, #0x90
     248:	aa1703e3 	mov	x3, x23
     24c:	aa1303e0 	mov	x0, x19
     250:	aa1b03e2 	mov	x2, x27
     254:	52b80001 	mov	w1, #0xc0000000            	// #-1073741824
     258:	94000cc9 	bl	357c <TEE_InitRefAttribute>
/workspace/aes_gcm_demo/aesgcm_ta/aesgcm_ta.c:183
     25c:	f94047e0 	ldr	x0, [sp, #136]
     260:	aa1303e1 	mov	x1, x19
     264:	2a1403e2 	mov	w2, w20
     268:	94000c23 	bl	32f4 <TEE_PopulateTransientObject>
     26c:	2a0003f3 	mov	w19, w0
/workspace/aes_gcm_demo/aesgcm_ta/aesgcm_ta.c:184
     270:	350002e0 	cbnz	w0, 2cc <TA_InvokeCommandEntryPoint+0x1c8>
/workspace/aes_gcm_demo/aesgcm_ta/aesgcm_ta.c:186
     274:	a94807e0 	ldp	x0, x1, [sp, #128]
     278:	94001640 	bl	5b78 <TEE_SetOperationKey>
     27c:	2a0003f3 	mov	w19, w0
/workspace/aes_gcm_demo/aesgcm_ta/aesgcm_ta.c:187
     280:	35000260 	cbnz	w0, 2cc <TA_InvokeCommandEntryPoint+0x1c8>
/workspace/aes_gcm_demo/aesgcm_ta/aesgcm_ta.c:189
     284:	a94783e3 	ldp	x3, x0, [sp, #120]
     288:	aa1503e5 	mov	x5, x21
     28c:	aa1a03e2 	mov	x2, x26
     290:	aa1903e1 	mov	x1, x25
     294:	d2800004 	mov	x4, #0x0                   	// #0
     298:	531d7063 	lsl	w3, w3, #3
     29c:	94001a96 	bl	6cf4 <TEE_AEInit>
     2a0:	2a0003f3 	mov	w19, w0
/workspace/aes_gcm_demo/aesgcm_ta/aesgcm_ta.c:190
     2a4:	35000140 	cbnz	w0, 2cc <TA_InvokeCommandEntryPoint+0x1c8>
/workspace/aes_gcm_demo/aesgcm_ta/aesgcm_ta.c:192
     2a8:	f94043e0 	ldr	x0, [sp, #128]
     2ac:	9101e3e6 	add	x6, sp, #0x78
     2b0:	9102a3e5 	add	x5, sp, #0xa8
     2b4:	9101c3e4 	add	x4, sp, #0x70
     2b8:	aa1c03e3 	mov	x3, x28
     2bc:	aa1503e2 	mov	x2, x21
     2c0:	aa1803e1 	mov	x1, x24
     2c4:	94001b80 	bl	70c4 <TEE_AEEncryptFinal>
     2c8:	2a0003f3 	mov	w19, w0
/workspace/aes_gcm_demo/aesgcm_ta/aesgcm_ta.c:195
     2cc:	f94043e0 	ldr	x0, [sp, #128]
     2d0:	b4000040 	cbz	x0, 2d8 <TA_InvokeCommandEntryPoint+0x1d4>
     2d4:	94001246 	bl	4bec <TEE_FreeOperation>
/workspace/aes_gcm_demo/aesgcm_ta/aesgcm_ta.c:196
     2d8:	f94047e0 	ldr	x0, [sp, #136]
     2dc:	b4000040 	cbz	x0, 2e4 <TA_InvokeCommandEntryPoint+0x1e0>
     2e0:	94000bbd 	bl	31d4 <TEE_FreeTransientObject>
cmd_encrypt():
/workspace/aes_gcm_demo/aesgcm_ta/aesgcm_ta.c:104
     2e4:	34000173 	cbz	w19, 310 <TA_InvokeCommandEntryPoint+0x20c>
/workspace/aes_gcm_demo/aesgcm_ta/aesgcm_ta.c:105
     2e8:	f00000a4 	adrp	x4, 17000 <__text_end+0x393c>
     2ec:	f00000a0 	adrp	x0, 17000 <__text_end+0x393c>
     2f0:	2a1303e5 	mov	w5, w19
     2f4:	912e8884 	add	x4, x4, #0xba2
     2f8:	912f7000 	add	x0, x0, #0xbdc
     2fc:	52800023 	mov	w3, #0x1                   	// #1
     300:	52800022 	mov	w2, #0x1                   	// #1
     304:	52800d21 	mov	w1, #0x69                  	// #105
cmd_decrypt():
/workspace/aes_gcm_demo/aesgcm_ta/aesgcm_ta.c:157
     308:	9400012b 	bl	7b4 <trace_printf>
/workspace/aes_gcm_demo/aesgcm_ta/aesgcm_ta.c:158
     30c:	17ffff91 	b	150 <TA_InvokeCommandEntryPoint+0x4c>
cmd_encrypt():
/workspace/aes_gcm_demo/aesgcm_ta/aesgcm_ta.c:109
     310:	a9470be0 	ldp	x0, x2, [sp, #112]
     314:	9102a3e1 	add	x1, sp, #0xa8
     318:	8b000380 	add	x0, x28, x0
     31c:	9400089d 	bl	2590 <TEE_MemMove>
/workspace/aes_gcm_demo/aesgcm_ta/aesgcm_ta.c:110
     320:	a94707e0 	ldp	x0, x1, [sp, #112]
     324:	8b010000 	add	x0, x0, x1
     328:	f90006c0 	str	x0, [x22, #8]
TA_InvokeCommandEntryPoint():
/workspace/aes_gcm_demo/aesgcm_ta/aesgcm_ta.c:58
     32c:	17ffff89 	b	150 <TA_InvokeCommandEntryPoint+0x4c>
cmd_decrypt():
/workspace/aes_gcm_demo/aesgcm_ta/aesgcm_ta.c:122
     330:	528caaa0 	mov	w0, #0x6555                	// #25941
     334:	6b00005f 	cmp	w2, w0
     338:	54000140 	b.eq	360 <TA_InvokeCommandEntryPoint+0x25c>  // b.none
/workspace/aes_gcm_demo/aesgcm_ta/aesgcm_ta.c:123
     33c:	f00000a0 	adrp	x0, 17000 <__text_end+0x393c>
     340:	912f7000 	add	x0, x0, #0xbdc
     344:	f00000a4 	adrp	x4, 17000 <__text_end+0x393c>
     348:	91003000 	add	x0, x0, #0xc
     34c:	912dd084 	add	x4, x4, #0xb74
     350:	52800023 	mov	w3, #0x1                   	// #1
     354:	52800022 	mov	w2, #0x1                   	// #1
     358:	52800f61 	mov	w1, #0x7b                  	// #123
     35c:	17ffff8f 	b	198 <TA_InvokeCommandEntryPoint+0x94>
/workspace/aes_gcm_demo/aesgcm_ta/aesgcm_ta.c:132
     360:	a9425076 	ldp	x22, x20, [x3, #32]
/workspace/aes_gcm_demo/aesgcm_ta/aesgcm_ta.c:133
     364:	9100c075 	add	x21, x3, #0x30
/workspace/aes_gcm_demo/aesgcm_ta/aesgcm_ta.c:134
     368:	f94006a0 	ldr	x0, [x21, #8]
     36c:	f9003fe0 	str	x0, [sp, #120]
/workspace/aes_gcm_demo/aesgcm_ta/aesgcm_ta.c:128
     370:	a9405c7b 	ldp	x27, x23, [x3]
/workspace/aes_gcm_demo/aesgcm_ta/aesgcm_ta.c:130
     374:	a9416879 	ldp	x25, x26, [x3, #16]
/workspace/aes_gcm_demo/aesgcm_ta/aesgcm_ta.c:133
     378:	f9401878 	ldr	x24, [x3, #48]
/workspace/aes_gcm_demo/aesgcm_ta/aesgcm_ta.c:136
     37c:	f100429f 	cmp	x20, #0x10
     380:	54000168 	b.hi	3ac <TA_InvokeCommandEntryPoint+0x2a8>  // b.pmore
/workspace/aes_gcm_demo/aesgcm_ta/aesgcm_ta.c:137
     384:	f00000a0 	adrp	x0, 17000 <__text_end+0x393c>
     388:	912f7000 	add	x0, x0, #0xbdc
     38c:	91003000 	add	x0, x0, #0xc
     390:	f00000a4 	adrp	x4, 17000 <__text_end+0x393c>
     394:	52800023 	mov	w3, #0x1                   	// #1
     398:	912edc84 	add	x4, x4, #0xbb7
     39c:	52800022 	mov	w2, #0x1                   	// #1
     3a0:	52801121 	mov	w1, #0x89                  	// #137
     3a4:	94000104 	bl	7b4 <trace_printf>
/workspace/aes_gcm_demo/aesgcm_ta/aesgcm_ta.c:138
     3a8:	17ffff69 	b	14c <TA_InvokeCommandEntryPoint+0x48>
/workspace/aes_gcm_demo/aesgcm_ta/aesgcm_ta.c:141
     3ac:	d1004294 	sub	x20, x20, #0x10
/workspace/aes_gcm_demo/aesgcm_ta/aesgcm_ta.c:144
     3b0:	eb14001f 	cmp	x0, x20
     3b4:	54000182 	b.cs	3e4 <TA_InvokeCommandEntryPoint+0x2e0>  // b.hs, b.nlast
/workspace/aes_gcm_demo/aesgcm_ta/aesgcm_ta.c:145
     3b8:	f00000a0 	adrp	x0, 17000 <__text_end+0x393c>
     3bc:	912f7000 	add	x0, x0, #0xbdc
     3c0:	91003000 	add	x0, x0, #0xc
     3c4:	f00000a4 	adrp	x4, 17000 <__text_end+0x393c>
     3c8:	52800023 	mov	w3, #0x1                   	// #1
     3cc:	912e2884 	add	x4, x4, #0xb8a
     3d0:	52800022 	mov	w2, #0x1                   	// #1
     3d4:	52801221 	mov	w1, #0x91                  	// #145
     3d8:	940000f7 	bl	7b4 <trace_printf>
/workspace/aes_gcm_demo/aesgcm_ta/aesgcm_ta.c:146
     3dc:	f90006b4 	str	x20, [x21, #8]
     3e0:	17ffff82 	b	1e8 <TA_InvokeCommandEntryPoint+0xe4>
do_aes_gcm_decrypt():
/workspace/aes_gcm_demo/aesgcm_ta/aesgcm_ta.c:210
     3e4:	531d72fc 	lsl	w28, w23, #3
     3e8:	52810201 	mov	w1, #0x810                 	// #2064
     3ec:	2a1c03e3 	mov	w3, w28
     3f0:	910203e0 	add	x0, sp, #0x80
     3f4:	52800022 	mov	w2, #0x1                   	// #1
     3f8:	72a80001 	movk	w1, #0x4000, lsl #16
/workspace/aes_gcm_demo/aesgcm_ta/aesgcm_ta.c:207
     3fc:	a9087fff 	stp	xzr, xzr, [sp, #128]
/workspace/aes_gcm_demo/aesgcm_ta/aesgcm_ta.c:210
     400:	9400120b 	bl	4c2c <TEE_AllocateOperation>
     404:	2a0003f3 	mov	w19, w0
/workspace/aes_gcm_demo/aesgcm_ta/aesgcm_ta.c:212
     408:	35000540 	cbnz	w0, 4b0 <TA_InvokeCommandEntryPoint+0x3ac>
/workspace/aes_gcm_demo/aesgcm_ta/aesgcm_ta.c:214
     40c:	52800200 	mov	w0, #0x10                  	// #16
     410:	910223e2 	add	x2, sp, #0x88
     414:	2a1c03e1 	mov	w1, w28
     418:	72b40000 	movk	w0, #0xa000, lsl #16
     41c:	94000b67 	bl	31b8 <TEE_AllocateTransientObject>
     420:	2a0003f3 	mov	w19, w0
/workspace/aes_gcm_demo/aesgcm_ta/aesgcm_ta.c:215
     424:	35000460 	cbnz	w0, 4b0 <TA_InvokeCommandEntryPoint+0x3ac>
/workspace/aes_gcm_demo/aesgcm_ta/aesgcm_ta.c:217
     428:	910243f3 	add	x19, sp, #0x90
     42c:	aa1703e3 	mov	x3, x23
     430:	aa1303e0 	mov	x0, x19
     434:	aa1b03e2 	mov	x2, x27
     438:	52b80001 	mov	w1, #0xc0000000            	// #-1073741824
     43c:	94000c50 	bl	357c <TEE_InitRefAttribute>
/workspace/aes_gcm_demo/aesgcm_ta/aesgcm_ta.c:218
     440:	f94047e0 	ldr	x0, [sp, #136]
     444:	aa1303e1 	mov	x1, x19
     448:	52800022 	mov	w2, #0x1                   	// #1
     44c:	94000baa 	bl	32f4 <TEE_PopulateTransientObject>
     450:	2a0003f3 	mov	w19, w0
/workspace/aes_gcm_demo/aesgcm_ta/aesgcm_ta.c:219
     454:	350002e0 	cbnz	w0, 4b0 <TA_InvokeCommandEntryPoint+0x3ac>
/workspace/aes_gcm_demo/aesgcm_ta/aesgcm_ta.c:221
     458:	a94807e0 	ldp	x0, x1, [sp, #128]
     45c:	940015c7 	bl	5b78 <TEE_SetOperationKey>
     460:	2a0003f3 	mov	w19, w0
/workspace/aes_gcm_demo/aesgcm_ta/aesgcm_ta.c:222
     464:	35000260 	cbnz	w0, 4b0 <TA_InvokeCommandEntryPoint+0x3ac>
/workspace/aes_gcm_demo/aesgcm_ta/aesgcm_ta.c:224
     468:	f94043e0 	ldr	x0, [sp, #128]
     46c:	aa1403e5 	mov	x5, x20
     470:	aa1a03e2 	mov	x2, x26
     474:	aa1903e1 	mov	x1, x25
     478:	d2800004 	mov	x4, #0x0                   	// #0
     47c:	52801003 	mov	w3, #0x80                  	// #128
     480:	94001a1d 	bl	6cf4 <TEE_AEInit>
     484:	2a0003f3 	mov	w19, w0
/workspace/aes_gcm_demo/aesgcm_ta/aesgcm_ta.c:225
     488:	35000140 	cbnz	w0, 4b0 <TA_InvokeCommandEntryPoint+0x3ac>
/workspace/aes_gcm_demo/aesgcm_ta/aesgcm_ta.c:227
     48c:	f94043e0 	ldr	x0, [sp, #128]
     490:	8b1402c5 	add	x5, x22, x20
     494:	9101e3e4 	add	x4, sp, #0x78
     498:	aa1803e3 	mov	x3, x24
     49c:	aa1403e2 	mov	x2, x20
     4a0:	aa1603e1 	mov	x1, x22
     4a4:	d2800206 	mov	x6, #0x10                  	// #16
     4a8:	94001bbd 	bl	739c <TEE_AEDecryptFinal>
     4ac:	2a0003f3 	mov	w19, w0
/workspace/aes_gcm_demo/aesgcm_ta/aesgcm_ta.c:230
     4b0:	f94043e0 	ldr	x0, [sp, #128]
     4b4:	b4000040 	cbz	x0, 4bc <TA_InvokeCommandEntryPoint+0x3b8>
     4b8:	940011cd 	bl	4bec <TEE_FreeOperation>
/workspace/aes_gcm_demo/aesgcm_ta/aesgcm_ta.c:231
     4bc:	f94047e0 	ldr	x0, [sp, #136]
     4c0:	b4000040 	cbz	x0, 4c8 <TA_InvokeCommandEntryPoint+0x3c4>
     4c4:	94000b44 	bl	31d4 <TEE_FreeTransientObject>
cmd_decrypt():
/workspace/aes_gcm_demo/aesgcm_ta/aesgcm_ta.c:156
     4c8:	34000173 	cbz	w19, 4f4 <TA_InvokeCommandEntryPoint+0x3f0>
/workspace/aes_gcm_demo/aesgcm_ta/aesgcm_ta.c:157
     4cc:	f00000a0 	adrp	x0, 17000 <__text_end+0x393c>
     4d0:	912f7000 	add	x0, x0, #0xbdc
     4d4:	f00000a4 	adrp	x4, 17000 <__text_end+0x393c>
     4d8:	2a1303e5 	mov	w5, w19
     4dc:	912f1c84 	add	x4, x4, #0xbc7
     4e0:	91003000 	add	x0, x0, #0xc
     4e4:	52800023 	mov	w3, #0x1                   	// #1
     4e8:	52800022 	mov	w2, #0x1                   	// #1
     4ec:	528013a1 	mov	w1, #0x9d                  	// #157
     4f0:	17ffff86 	b	308 <TA_InvokeCommandEntryPoint+0x204>
/workspace/aes_gcm_demo/aesgcm_ta/aesgcm_ta.c:161
     4f4:	f9403fe0 	ldr	x0, [sp, #120]
     4f8:	f90006a0 	str	x0, [x21, #8]
TA_InvokeCommandEntryPoint():
/workspace/aes_gcm_demo/aesgcm_ta/aesgcm_ta.c:60
     4fc:	17ffff15 	b	150 <TA_InvokeCommandEntryPoint+0x4c>
/workspace/aes_gcm_demo/aesgcm_ta/aesgcm_ta.c:64
     500:	2a1303e0 	mov	w0, w19
     504:	a94153f3 	ldp	x19, x20, [sp, #16]
     508:	a9425bf5 	ldp	x21, x22, [sp, #32]
     50c:	a94363f7 	ldp	x23, x24, [sp, #48]
     510:	a9446bf9 	ldp	x25, x26, [sp, #64]
     514:	a94573fb 	ldp	x27, x28, [sp, #80]
     518:	a8cc7bfd 	ldp	x29, x30, [sp], #192
     51c:	d65f03c0 	ret

0000000000000520 <__ta_entry>:
__ta_entry():
/optee/optee_os/out/arm-plat-vexpress/export-ta_arm64/src/user_ta_header.c:51
     520:	a9bf7bfd 	stp	x29, x30, [sp, #-16]!
     524:	910003fd 	mov	x29, sp
/optee/optee_os/out/arm-plat-vexpress/export-ta_arm64/src/user_ta_header.c:70
     528:	940023fc 	bl	9518 <__utee_entry>
/optee/optee_os/out/arm-plat-vexpress/export-ta_arm64/src/user_ta_header.c:81
     52c:	2a0003e0 	mov	w0, w0
     530:	9400249f 	bl	97ac <_utee_return>

0000000000000534 <tahead_get_trace_level>:
tahead_get_trace_level():
/optee/optee_os/out/arm-plat-vexpress/export-ta_arm64/src/user_ta_header.c:193
     534:	52800020 	mov	w0, #0x1                   	// #1
     538:	d65f03c0 	ret

000000000000053c <__stack_chk_fail>:
__stack_chk_fail():
/optee/optee_os/lib/libutils/isoc/stack_check.c:24
     53c:	a9bf7bfd 	stp	x29, x30, [sp, #-16]!
/optee/optee_os/lib/libutils/isoc/stack_check.c:25
     540:	f00000a4 	adrp	x4, 17000 <__text_end+0x393c>
     544:	52800023 	mov	w3, #0x1                   	// #1
/optee/optee_os/lib/libutils/isoc/stack_check.c:24
     548:	910003fd 	mov	x29, sp
/optee/optee_os/lib/libutils/isoc/stack_check.c:25
     54c:	91340c84 	add	x4, x4, #0xd03
     550:	52800022 	mov	w2, #0x1                   	// #1
     554:	52800001 	mov	w1, #0x0                   	// #0
     558:	d2800000 	mov	x0, #0x0                   	// #0
     55c:	94000096 	bl	7b4 <trace_printf>
/optee/optee_os/lib/libutils/isoc/stack_check.c:27 (discriminator 1)
     560:	1299fe00 	mov	w0, #0xffff300f            	// #-53233
     564:	9400248f 	bl	97a0 <_utee_panic>
/optee/optee_os/lib/libutils/isoc/stack_check.c:26 (discriminator 1)
     568:	17fffffe 	b	560 <__stack_chk_fail+0x24>

000000000000056c <trace_set_level>:
trace_set_level():
/optee/optee_os/lib/libutils/ext/trace.c:28
     56c:	7100141f 	cmp	w0, #0x5
     570:	52800081 	mov	w1, #0x4                   	// #4
     574:	1a813000 	csel	w0, w0, w1, cc  // cc = lo, ul, last
     578:	b00000c1 	adrp	x1, 19000 <_DYNAMIC>
     57c:	f940a821 	ldr	x1, [x1, #336]
     580:	b9000020 	str	w0, [x1]
/optee/optee_os/lib/libutils/ext/trace.c:29
     584:	d65f03c0 	ret

0000000000000588 <trace_get_level>:
trace_get_level():
/optee/optee_os/lib/libutils/ext/trace.c:33
     588:	b00000c0 	adrp	x0, 19000 <_DYNAMIC>
/optee/optee_os/lib/libutils/ext/trace.c:34
     58c:	f940a800 	ldr	x0, [x0, #336]
     590:	b9400000 	ldr	w0, [x0]
     594:	d65f03c0 	ret

0000000000000598 <trace_vprintf>:
trace_vprintf():
/optee/optee_os/lib/libutils/ext/trace.c:113
     598:	a9a77bfd 	stp	x29, x30, [sp, #-400]!
     59c:	910003fd 	mov	x29, sp
     5a0:	a9046bf9 	stp	x25, x26, [sp, #64]
     5a4:	2a0103f9 	mov	w25, w1
     5a8:	b00000c1 	adrp	x1, 19000 <_DYNAMIC>
     5ac:	a9025bf5 	stp	x21, x22, [sp, #32]
     5b0:	aa0003f6 	mov	x22, x0
     5b4:	aa0103f5 	mov	x21, x1
     5b8:	f9409820 	ldr	x0, [x1, #304]
     5bc:	a90153f3 	stp	x19, x20, [sp, #16]
     5c0:	2a0203f3 	mov	w19, w2
     5c4:	a90363f7 	stp	x23, x24, [sp, #48]
     5c8:	aa0403f7 	mov	x23, x4
     5cc:	aa0503f8 	mov	x24, x5
     5d0:	a90573fb 	stp	x27, x28, [sp, #80]
/optee/optee_os/lib/libutils/ext/trace.c:118
     5d4:	72001c7b 	ands	w27, w3, #0xff
/optee/optee_os/lib/libutils/ext/trace.c:113
     5d8:	f9400002 	ldr	x2, [x0]
     5dc:	f900c7e2 	str	x2, [sp, #392]
     5e0:	d2800002 	mov	x2, #0x0                   	// #0
/optee/optee_os/lib/libutils/ext/trace.c:118
     5e4:	54000b20 	b.eq	748 <trace_vprintf+0x1b0>  // b.none
/optee/optee_os/lib/libutils/ext/trace.c:118 (discriminator 1)
     5e8:	f940a820 	ldr	x0, [x1, #336]
     5ec:	b9400000 	ldr	w0, [x0]
     5f0:	6b13001f 	cmp	w0, w19
     5f4:	540009cb 	b.lt	72c <trace_vprintf+0x194>  // b.tstop
trace_level_to_string():
/optee/optee_os/lib/libutils/ext/trace.c:51
     5f8:	7100127f 	cmp	w19, #0x4
/optee/optee_os/lib/libutils/ext/trace.c:54
     5fc:	f00000a0 	adrp	x0, 17000 <__text_end+0x393c>
/optee/optee_os/lib/libutils/ext/trace.c:51
     600:	1a9f9261 	csel	w1, w19, wzr, ls  // ls = plast
/optee/optee_os/lib/libutils/ext/trace.c:54
     604:	9134d400 	add	x0, x0, #0xd35
     608:	3861c803 	ldrb	w3, [x0, w1, sxtw]
trace_vprintf():
/optee/optee_os/lib/libutils/ext/trace.c:122
     60c:	910223f4 	add	x20, sp, #0x88
     610:	f00000a2 	adrp	x2, 17000 <__text_end+0x393c>
     614:	aa1403e0 	mov	x0, x20
     618:	91346c42 	add	x2, x2, #0xd1b
     61c:	d2802001 	mov	x1, #0x100                 	// #256
     620:	940000e6 	bl	9b8 <snprintk>
/optee/optee_os/lib/libutils/ext/trace.c:124
     624:	37f80840 	tbnz	w0, #31, 72c <trace_vprintf+0x194>
/optee/optee_os/lib/libutils/ext/trace.c:129
     628:	f940b2a3 	ldr	x3, [x21, #352]
     62c:	d280201c 	mov	x28, #0x100                 	// #256
/optee/optee_os/lib/libutils/ext/trace.c:126
     630:	93407c1a 	sxtw	x26, w0
/optee/optee_os/lib/libutils/ext/trace.c:129
     634:	cb20c381 	sub	x1, x28, w0, sxtw
     638:	f00000a2 	adrp	x2, 17000 <__text_end+0x393c>
     63c:	8b20c280 	add	x0, x20, w0, sxtw
     640:	91347c42 	add	x2, x2, #0xd1f
     644:	940000dd 	bl	9b8 <snprintk>
/optee/optee_os/lib/libutils/ext/trace.c:131
     648:	37f80720 	tbnz	w0, #31, 72c <trace_vprintf+0x194>
/optee/optee_os/lib/libutils/ext/trace.c:133
     64c:	8b20c35a 	add	x26, x26, w0, sxtw
/optee/optee_os/lib/libutils/ext/trace.c:135
     650:	3400093b 	cbz	w27, 774 <trace_vprintf+0x1dc>
/optee/optee_os/lib/libutils/ext/trace.c:135 (discriminator 1)
     654:	52800340 	mov	w0, #0x1a                  	// #26
     658:	1ad32400 	lsr	w0, w0, w19
     65c:	360008c0 	tbz	w0, #0, 774 <trace_vprintf+0x1dc>
print_thread_id():
/optee/optee_os/lib/libutils/ext/trace.c:66
     660:	9400042a 	bl	1708 <trace_ext_get_thread_id>
trace_vprintf():
/optee/optee_os/lib/libutils/ext/trace.c:137
     664:	8b1a029b 	add	x27, x20, x26
     668:	cb1a039c 	sub	x28, x28, x26
print_thread_id():
/optee/optee_os/lib/libutils/ext/trace.c:66
     66c:	2a0003e4 	mov	w4, w0
/optee/optee_os/lib/libutils/ext/trace.c:68
     670:	37f80700 	tbnz	w0, #31, 750 <trace_vprintf+0x1b8>
/optee/optee_os/lib/libutils/ext/trace.c:69
     674:	f00000a2 	adrp	x2, 17000 <__text_end+0x393c>
     678:	aa1c03e1 	mov	x1, x28
     67c:	91348c42 	add	x2, x2, #0xd23
     680:	aa1b03e0 	mov	x0, x27
     684:	52800023 	mov	w3, #0x1                   	// #1
     688:	940000cc 	bl	9b8 <snprintk>
trace_vprintf():
/optee/optee_os/lib/libutils/ext/trace.c:144
     68c:	37f80500 	tbnz	w0, #31, 72c <trace_vprintf+0x194>
/optee/optee_os/lib/libutils/ext/trace.c:146
     690:	8b20c353 	add	x19, x26, w0, sxtw
/optee/optee_os/lib/libutils/ext/trace.c:148
     694:	b4000176 	cbz	x22, 6c0 <trace_vprintf+0x128>
/optee/optee_os/lib/libutils/ext/trace.c:149
     698:	f00000a2 	adrp	x2, 17000 <__text_end+0x393c>
     69c:	d2802001 	mov	x1, #0x100                 	// #256
     6a0:	2a1903e4 	mov	w4, w25
     6a4:	aa1603e3 	mov	x3, x22
     6a8:	9134b842 	add	x2, x2, #0xd2e
     6ac:	cb130021 	sub	x1, x1, x19
     6b0:	8b130280 	add	x0, x20, x19
     6b4:	940000c1 	bl	9b8 <snprintk>
/optee/optee_os/lib/libutils/ext/trace.c:151
     6b8:	37f803a0 	tbnz	w0, #31, 72c <trace_vprintf+0x194>
/optee/optee_os/lib/libutils/ext/trace.c:153
     6bc:	8b20c273 	add	x19, x19, w0, sxtw
/optee/optee_os/lib/libutils/ext/trace.c:163
     6c0:	910183e3 	add	x3, sp, #0x60
     6c4:	aa1803e1 	mov	x1, x24
     6c8:	aa0303e0 	mov	x0, x3
     6cc:	d2800402 	mov	x2, #0x20                  	// #32
     6d0:	97fffe4c 	bl	0 <memcpy>
     6d4:	aa0003e3 	mov	x3, x0
     6d8:	d2802001 	mov	x1, #0x100                 	// #256
     6dc:	aa1703e2 	mov	x2, x23
     6e0:	cb130021 	sub	x1, x1, x19
     6e4:	8b130280 	add	x0, x20, x19
     6e8:	9400009e 	bl	960 <vsnprintk>
/optee/optee_os/lib/libutils/ext/trace.c:164
     6ec:	7100001f 	cmp	w0, #0x0
     6f0:	5400004d 	b.le	6f8 <trace_vprintf+0x160>
/optee/optee_os/lib/libutils/ext/trace.c:165
     6f4:	8b20c273 	add	x19, x19, w0, sxtw
/optee/optee_os/lib/libutils/ext/trace.c:167
     6f8:	f103fa7f 	cmp	x19, #0xfe
     6fc:	d2801fc0 	mov	x0, #0xfe                  	// #254
     700:	9a809273 	csel	x19, x19, x0, ls  // ls = plast
/optee/optee_os/lib/libutils/ext/trace.c:170
     704:	52800140 	mov	w0, #0xa                   	// #10
     708:	38336a80 	strb	w0, [x20, x19]
/optee/optee_os/lib/libutils/ext/trace.c:171
     70c:	b4000093 	cbz	x19, 71c <trace_vprintf+0x184>
/optee/optee_os/lib/libutils/ext/trace.c:171 (discriminator 1)
     710:	38736a80 	ldrb	w0, [x20, x19]
     714:	7100281f 	cmp	w0, #0xa
     718:	540003c0 	b.eq	790 <trace_vprintf+0x1f8>  // b.none
/optee/optee_os/lib/libutils/ext/trace.c:174
     71c:	91022be0 	add	x0, sp, #0x8a
     720:	3833681f 	strb	wzr, [x0, x19]
/optee/optee_os/lib/libutils/ext/trace.c:176
     724:	aa1403e0 	mov	x0, x20
     728:	940003ee 	bl	16e0 <trace_ext_puts>
/optee/optee_os/lib/libutils/ext/trace.c:177
     72c:	f9409ab5 	ldr	x21, [x21, #304]
     730:	f940c7e0 	ldr	x0, [sp, #392]
     734:	f94002a1 	ldr	x1, [x21]
     738:	eb010000 	subs	x0, x0, x1
     73c:	d2800001 	mov	x1, #0x0                   	// #0
     740:	540002c0 	b.eq	798 <trace_vprintf+0x200>  // b.none
     744:	97ffff7e 	bl	53c <__stack_chk_fail>
trace_level_to_string():
/optee/optee_os/lib/libutils/ext/trace.c:49
     748:	528009a3 	mov	w3, #0x4d                  	// #77
     74c:	17ffffb0 	b	60c <trace_vprintf+0x74>
print_thread_id():
/optee/optee_os/lib/libutils/ext/trace.c:71
     750:	aa1c03e1 	mov	x1, x28
     754:	aa1b03e0 	mov	x0, x27
     758:	900000c4 	adrp	x4, 18000 <__func__.12+0x9>
     75c:	52800023 	mov	w3, #0x1                   	// #1
     760:	91190084 	add	x4, x4, #0x640
     764:	f00000a2 	adrp	x2, 17000 <__text_end+0x393c>
     768:	9134a442 	add	x2, x2, #0xd29
     76c:	94000093 	bl	9b8 <snprintk>
     770:	17ffffc7 	b	68c <trace_vprintf+0xf4>
trace_vprintf():
/optee/optee_os/lib/libutils/ext/trace.c:157
     774:	f103fb5f 	cmp	x26, #0xfe
     778:	54fffda8 	b.hi	72c <trace_vprintf+0x194>  // b.pmore
/optee/optee_os/lib/libutils/ext/trace.c:159
     77c:	91000753 	add	x19, x26, #0x1
     780:	52800400 	mov	w0, #0x20                  	// #32
     784:	383a6a80 	strb	w0, [x20, x26]
/optee/optee_os/lib/libutils/ext/trace.c:160
     788:	38336a9f 	strb	wzr, [x20, x19]
     78c:	17ffffcd 	b	6c0 <trace_vprintf+0x128>
/optee/optee_os/lib/libutils/ext/trace.c:172
     790:	d1000673 	sub	x19, x19, #0x1
     794:	17ffffde 	b	70c <trace_vprintf+0x174>
/optee/optee_os/lib/libutils/ext/trace.c:177
     798:	a94153f3 	ldp	x19, x20, [sp, #16]
     79c:	a9425bf5 	ldp	x21, x22, [sp, #32]
     7a0:	a94363f7 	ldp	x23, x24, [sp, #48]
     7a4:	a9446bf9 	ldp	x25, x26, [sp, #64]
     7a8:	a94573fb 	ldp	x27, x28, [sp, #80]
     7ac:	a8d97bfd 	ldp	x29, x30, [sp], #400
     7b0:	d65f03c0 	ret

00000000000007b4 <trace_printf>:
trace_printf():
/optee/optee_os/lib/libutils/ext/trace.c:104
     7b4:	a9ad7bfd 	stp	x29, x30, [sp, #-304]!
     7b8:	910003fd 	mov	x29, sp
     7bc:	a90153f3 	stp	x19, x20, [sp, #16]
     7c0:	b00000d3 	adrp	x19, 19000 <_DYNAMIC>
     7c4:	aa0003f4 	mov	x20, x0
     7c8:	f9409a60 	ldr	x0, [x19, #304]
     7cc:	a9025bf5 	stp	x21, x22, [sp, #32]
     7d0:	2a0103f5 	mov	w21, w1
     7d4:	a90363f7 	stp	x23, x24, [sp, #48]
     7d8:	2a0203f6 	mov	w22, w2
     7dc:	12001c78 	and	w24, w3, #0xff
     7e0:	3d8027e0 	str	q0, [sp, #144]
     7e4:	aa0403f7 	mov	x23, x4
/optee/optee_os/lib/libutils/ext/trace.c:108
     7e8:	d2800402 	mov	x2, #0x20                  	// #32
/optee/optee_os/lib/libutils/ext/trace.c:104
     7ec:	3d802be1 	str	q1, [sp, #160]
     7f0:	3d802fe2 	str	q2, [sp, #176]
     7f4:	3d8033e3 	str	q3, [sp, #192]
     7f8:	3d8037e4 	str	q4, [sp, #208]
     7fc:	3d803be5 	str	q5, [sp, #224]
     800:	3d803fe6 	str	q6, [sp, #240]
     804:	3d8043e7 	str	q7, [sp, #256]
     808:	a9119be5 	stp	x5, x6, [sp, #280]
/optee/optee_os/lib/libutils/ext/trace.c:108
     80c:	910103e5 	add	x5, sp, #0x40
/optee/optee_os/lib/libutils/ext/trace.c:104
     810:	f90097e7 	str	x7, [sp, #296]
     814:	f9400001 	ldr	x1, [x0]
     818:	f90047e1 	str	x1, [sp, #136]
     81c:	d2800001 	mov	x1, #0x0                   	// #0
/optee/optee_os/lib/libutils/ext/trace.c:107
     820:	9104c3e0 	add	x0, sp, #0x130
     824:	a90683e0 	stp	x0, x0, [sp, #104]
     828:	910443e0 	add	x0, sp, #0x110
/optee/optee_os/lib/libutils/ext/trace.c:108
     82c:	9101a3e1 	add	x1, sp, #0x68
/optee/optee_os/lib/libutils/ext/trace.c:107
     830:	f9003fe0 	str	x0, [sp, #120]
     834:	128002e0 	mov	w0, #0xffffffe8            	// #-24
     838:	b90083e0 	str	w0, [sp, #128]
     83c:	12800fe0 	mov	w0, #0xffffff80            	// #-128
     840:	b90087e0 	str	w0, [sp, #132]
/optee/optee_os/lib/libutils/ext/trace.c:108
     844:	aa0503e0 	mov	x0, x5
     848:	97fffdee 	bl	0 <memcpy>
     84c:	aa0003e5 	mov	x5, x0
     850:	2a1503e1 	mov	w1, w21
     854:	aa1403e0 	mov	x0, x20
     858:	aa1703e4 	mov	x4, x23
     85c:	2a1803e3 	mov	w3, w24
     860:	2a1603e2 	mov	w2, w22
     864:	97ffff4d 	bl	598 <trace_vprintf>
/optee/optee_os/lib/libutils/ext/trace.c:110
     868:	f9409a73 	ldr	x19, [x19, #304]
     86c:	f94047e0 	ldr	x0, [sp, #136]
     870:	f9400261 	ldr	x1, [x19]
     874:	eb010000 	subs	x0, x0, x1
     878:	d2800001 	mov	x1, #0x0                   	// #0
     87c:	54000040 	b.eq	884 <trace_printf+0xd0>  // b.none
     880:	97ffff2f 	bl	53c <__stack_chk_fail>
     884:	a94153f3 	ldp	x19, x20, [sp, #16]
     888:	a9425bf5 	ldp	x21, x22, [sp, #32]
     88c:	a94363f7 	ldp	x23, x24, [sp, #48]
     890:	a8d37bfd 	ldp	x29, x30, [sp], #304
     894:	d65f03c0 	ret

0000000000000898 <dhex_dump>:
dhex_dump():
/optee/optee_os/lib/libutils/ext/trace.c:287
     898:	d65f03c0 	ret

000000000000089c <__vsnprintf>:
__vsnprintf():
/optee/optee_os/lib/libutils/ext/snprintk.c:138
     89c:	a9b97bfd 	stp	x29, x30, [sp, #-112]!
     8a0:	b00000c5 	adrp	x5, 19000 <_DYNAMIC>
     8a4:	910003fd 	mov	x29, sp
     8a8:	f94098a5 	ldr	x5, [x5, #304]
     8ac:	a90153f3 	stp	x19, x20, [sp, #16]
     8b0:	aa0103f4 	mov	x20, x1
     8b4:	a9025bf5 	stp	x21, x22, [sp, #32]
     8b8:	aa0003f3 	mov	x19, x0
/optee/optee_os/lib/libutils/ext/snprintk.c:142
     8bc:	8b140016 	add	x22, x0, x20
/optee/optee_os/lib/libutils/ext/snprintk.c:138
     8c0:	f9001bf7 	str	x23, [sp, #48]
     8c4:	aa0303e1 	mov	x1, x3
     8c8:	aa0203f5 	mov	x21, x2
     8cc:	12001c97 	and	w23, w4, #0xff
     8d0:	f94000a0 	ldr	x0, [x5]
     8d4:	f90037e0 	str	x0, [sp, #104]
     8d8:	d2800000 	mov	x0, #0x0                   	// #0
/optee/optee_os/lib/libutils/ext/snprintk.c:143
     8dc:	910103e5 	add	x5, sp, #0x40
     8e0:	aa0503e0 	mov	x0, x5
     8e4:	d2800402 	mov	x2, #0x20                  	// #32
/optee/optee_os/lib/libutils/ext/snprintk.c:142
     8e8:	f90033f6 	str	x22, [sp, #96]
/optee/optee_os/lib/libutils/ext/snprintk.c:143
     8ec:	97fffdc5 	bl	0 <memcpy>
     8f0:	aa0003e3 	mov	x3, x0
     8f4:	2a1703e4 	mov	w4, w23
     8f8:	aa1303e2 	mov	x2, x19
     8fc:	910183e1 	add	x1, sp, #0x60
     900:	aa1503e0 	mov	x0, x21
     904:	94000061 	bl	a88 <kprintf.constprop.0>
/optee/optee_os/lib/libutils/ext/snprintk.c:144
     908:	f100027f 	cmp	x19, #0x0
     90c:	fa401a84 	ccmp	x20, #0x0, #0x4, ne  // ne = any
     910:	540000a0 	b.eq	924 <__vsnprintf+0x88>  // b.none
/optee/optee_os/lib/libutils/ext/snprintk.c:146
     914:	93407c01 	sxtw	x1, w0
     918:	eb20c29f 	cmp	x20, w0, sxtw
     91c:	54000148 	b.hi	944 <__vsnprintf+0xa8>  // b.pmore
/optee/optee_os/lib/libutils/ext/snprintk.c:147
     920:	381ff2df 	sturb	wzr, [x22, #-1]
/optee/optee_os/lib/libutils/ext/snprintk.c:152
     924:	b00000c5 	adrp	x5, 19000 <_DYNAMIC>
     928:	f94098a5 	ldr	x5, [x5, #304]
     92c:	f94037e1 	ldr	x1, [sp, #104]
     930:	f94000a2 	ldr	x2, [x5]
     934:	eb020021 	subs	x1, x1, x2
     938:	d2800002 	mov	x2, #0x0                   	// #0
     93c:	54000080 	b.eq	94c <__vsnprintf+0xb0>  // b.none
     940:	97fffeff 	bl	53c <__stack_chk_fail>
/optee/optee_os/lib/libutils/ext/snprintk.c:149
     944:	38216a7f 	strb	wzr, [x19, x1]
/optee/optee_os/lib/libutils/ext/snprintk.c:151
     948:	17fffff7 	b	924 <__vsnprintf+0x88>
/optee/optee_os/lib/libutils/ext/snprintk.c:152
     94c:	a94153f3 	ldp	x19, x20, [sp, #16]
     950:	a9425bf5 	ldp	x21, x22, [sp, #32]
     954:	f9401bf7 	ldr	x23, [sp, #48]
     958:	a8c77bfd 	ldp	x29, x30, [sp], #112
     95c:	d65f03c0 	ret

0000000000000960 <vsnprintk>:
vsnprintk():
/optee/optee_os/lib/libutils/ext/snprintk.c:130
     960:	a9bb7bfd 	stp	x29, x30, [sp, #-80]!
/optee/optee_os/lib/libutils/ext/snprintk.c:131
     964:	9100c3e4 	add	x4, sp, #0x30
/optee/optee_os/lib/libutils/ext/snprintk.c:130
     968:	910003fd 	mov	x29, sp
     96c:	a90153f3 	stp	x19, x20, [sp, #16]
     970:	aa0003f3 	mov	x19, x0
     974:	aa0103f4 	mov	x20, x1
/optee/optee_os/lib/libutils/ext/snprintk.c:131
     978:	aa0403e0 	mov	x0, x4
/optee/optee_os/lib/libutils/ext/snprintk.c:130
     97c:	aa0303e1 	mov	x1, x3
     980:	f90013f5 	str	x21, [sp, #32]
     984:	aa0203f5 	mov	x21, x2
/optee/optee_os/lib/libutils/ext/snprintk.c:131
     988:	d2800402 	mov	x2, #0x20                  	// #32
     98c:	97fffd9d 	bl	0 <memcpy>
     990:	aa1503e2 	mov	x2, x21
     994:	aa0003e3 	mov	x3, x0
     998:	aa1403e1 	mov	x1, x20
     99c:	aa1303e0 	mov	x0, x19
     9a0:	52800024 	mov	w4, #0x1                   	// #1
     9a4:	97ffffbe 	bl	89c <__vsnprintf>
/optee/optee_os/lib/libutils/ext/snprintk.c:132
     9a8:	a94153f3 	ldp	x19, x20, [sp, #16]
     9ac:	f94013f5 	ldr	x21, [sp, #32]
     9b0:	a8c57bfd 	ldp	x29, x30, [sp], #80
     9b4:	d65f03c0 	ret

00000000000009b8 <snprintk>:
snprintk():
/optee/optee_os/lib/libutils/ext/snprintk.c:113
     9b8:	a9ad7bfd 	stp	x29, x30, [sp, #-304]!
     9bc:	910003fd 	mov	x29, sp
     9c0:	a90153f3 	stp	x19, x20, [sp, #16]
     9c4:	b00000d3 	adrp	x19, 19000 <_DYNAMIC>
     9c8:	aa0003f4 	mov	x20, x0
     9cc:	f9409a60 	ldr	x0, [x19, #304]
     9d0:	a9025bf5 	stp	x21, x22, [sp, #32]
     9d4:	aa0103f5 	mov	x21, x1
     9d8:	3d8023e0 	str	q0, [sp, #128]
     9dc:	aa0203f6 	mov	x22, x2
/optee/optee_os/lib/libutils/ext/snprintk.c:118
     9e0:	d2800402 	mov	x2, #0x20                  	// #32
/optee/optee_os/lib/libutils/ext/snprintk.c:113
     9e4:	3d8027e1 	str	q1, [sp, #144]
     9e8:	3d802be2 	str	q2, [sp, #160]
     9ec:	3d802fe3 	str	q3, [sp, #176]
     9f0:	3d8033e4 	str	q4, [sp, #192]
     9f4:	3d8037e5 	str	q5, [sp, #208]
     9f8:	3d803be6 	str	q6, [sp, #224]
     9fc:	3d803fe7 	str	q7, [sp, #240]
     a00:	a91093e3 	stp	x3, x4, [sp, #264]
/optee/optee_os/lib/libutils/ext/snprintk.c:118
     a04:	9100c3e3 	add	x3, sp, #0x30
/optee/optee_os/lib/libutils/ext/snprintk.c:113
     a08:	a9119be5 	stp	x5, x6, [sp, #280]
     a0c:	f90097e7 	str	x7, [sp, #296]
     a10:	f9400001 	ldr	x1, [x0]
     a14:	f9003fe1 	str	x1, [sp, #120]
     a18:	d2800001 	mov	x1, #0x0                   	// #0
/optee/optee_os/lib/libutils/ext/snprintk.c:117
     a1c:	9104c3e0 	add	x0, sp, #0x130
     a20:	a90583e0 	stp	x0, x0, [sp, #88]
     a24:	910403e0 	add	x0, sp, #0x100
/optee/optee_os/lib/libutils/ext/snprintk.c:118
     a28:	910163e1 	add	x1, sp, #0x58
/optee/optee_os/lib/libutils/ext/snprintk.c:117
     a2c:	f90037e0 	str	x0, [sp, #104]
     a30:	128004e0 	mov	w0, #0xffffffd8            	// #-40
     a34:	b90073e0 	str	w0, [sp, #112]
     a38:	12800fe0 	mov	w0, #0xffffff80            	// #-128
     a3c:	b90077e0 	str	w0, [sp, #116]
/optee/optee_os/lib/libutils/ext/snprintk.c:118
     a40:	aa0303e0 	mov	x0, x3
     a44:	97fffd6f 	bl	0 <memcpy>
     a48:	aa0003e3 	mov	x3, x0
     a4c:	aa1603e2 	mov	x2, x22
     a50:	aa1503e1 	mov	x1, x21
     a54:	aa1403e0 	mov	x0, x20
     a58:	97ffffc2 	bl	960 <vsnprintk>
/optee/optee_os/lib/libutils/ext/snprintk.c:122
     a5c:	f9409a73 	ldr	x19, [x19, #304]
     a60:	f9403fe1 	ldr	x1, [sp, #120]
     a64:	f9400262 	ldr	x2, [x19]
     a68:	eb020021 	subs	x1, x1, x2
     a6c:	d2800002 	mov	x2, #0x0                   	// #0
     a70:	54000040 	b.eq	a78 <snprintk+0xc0>  // b.none
     a74:	97fffeb2 	bl	53c <__stack_chk_fail>
     a78:	a94153f3 	ldp	x19, x20, [sp, #16]
     a7c:	a9425bf5 	ldp	x21, x22, [sp, #32]
     a80:	a8d37bfd 	ldp	x29, x30, [sp], #304
     a84:	d65f03c0 	ret

0000000000000a88 <kprintf.constprop.0>:
kprintf():
/optee/optee_os/lib/libutils/ext/snprintk.c:242
     a88:	d103c3ff 	sub	sp, sp, #0xf0
     a8c:	aa0103e9 	mov	x9, x1
     a90:	a9037bfd 	stp	x29, x30, [sp, #48]
     a94:	9100c3fd 	add	x29, sp, #0x30
     a98:	a90873fb 	stp	x27, x28, [sp, #128]
     a9c:	aa0003fc 	mov	x28, x0
     aa0:	12001c80 	and	w0, w4, #0xff
     aa4:	b900abe0 	str	w0, [sp, #168]
     aa8:	b00000c0 	adrp	x0, 19000 <_DYNAMIC>
     aac:	a90453f3 	stp	x19, x20, [sp, #64]
     ab0:	b9401874 	ldr	w20, [x3, #24]
     ab4:	f9409800 	ldr	x0, [x0, #304]
     ab8:	a9055bf5 	stp	x21, x22, [sp, #80]
     abc:	aa0203f6 	mov	x22, x2
     ac0:	a90663f7 	stp	x23, x24, [sp, #96]
     ac4:	a9076bf9 	stp	x25, x26, [sp, #112]
     ac8:	f9400001 	ldr	x1, [x0]
     acc:	f90077e1 	str	x1, [sp, #232]
     ad0:	d2800001 	mov	x1, #0x0                   	// #0
     ad4:	a9406c73 	ldp	x19, x27, [x3]
/optee/optee_os/lib/libutils/ext/snprintk.c:264
     ad8:	b4000489 	cbz	x9, b68 <kprintf.constprop.0+0xe0>
/optee/optee_os/lib/libutils/ext/snprintk.c:265
     adc:	f9400139 	ldr	x25, [x9]
/optee/optee_os/lib/libutils/ext/snprintk.c:297
     ae0:	f00000b8 	adrp	x24, 17000 <__text_end+0x393c>
/optee/optee_os/lib/libutils/ext/snprintk.c:275
     ae4:	d2800017 	mov	x23, #0x0                   	// #0
/optee/optee_os/lib/libutils/ext/snprintk.c:297
     ae8:	911d2300 	add	x0, x24, #0x748
/optee/optee_os/lib/libutils/ext/snprintk.c:273
     aec:	5280001a 	mov	w26, #0x0                   	// #0
/optee/optee_os/lib/libutils/ext/snprintk.c:297
     af0:	f9004fe0 	str	x0, [sp, #152]
/optee/optee_os/lib/libutils/ext/snprintk.c:281
     af4:	39400380 	ldrb	w0, [x28]
     af8:	7100941f 	cmp	w0, #0x25
     afc:	7a401804 	ccmp	w0, #0x0, #0x4, ne  // ne = any
     b00:	54000381 	b.ne	b70 <kprintf.constprop.0+0xe8>  // b.any
/optee/optee_os/lib/libutils/ext/snprintk.c:285
     b04:	340051a0 	cbz	w0, 1538 <kprintf.constprop.0+0xab0>
/optee/optee_os/lib/libutils/ext/snprintk.c:293
     b08:	12800005 	mov	w5, #0xffffffff            	// #-1
/optee/optee_os/lib/libutils/ext/snprintk.c:297
     b0c:	f00000a2 	adrp	x2, 17000 <__text_end+0x393c>
/optee/optee_os/lib/libutils/ext/snprintk.c:288
     b10:	9100079c 	add	x28, x28, #0x1
     b14:	2a1403e4 	mov	w4, w20
     b18:	aa1303e3 	mov	x3, x19
/optee/optee_os/lib/libutils/ext/snprintk.c:297
     b1c:	911d9042 	add	x2, x2, #0x764
/optee/optee_os/lib/libutils/ext/snprintk.c:330
     b20:	2a0503e7 	mov	w7, w5
/optee/optee_os/lib/libutils/ext/snprintk.c:294
     b24:	52800001 	mov	w1, #0x0                   	// #0
/optee/optee_os/lib/libutils/ext/snprintk.c:292
     b28:	5280000b 	mov	w11, #0x0                   	// #0
/optee/optee_os/lib/libutils/ext/snprintk.c:290
     b2c:	52800015 	mov	w21, #0x0                   	// #0
/optee/optee_os/lib/libutils/ext/snprintk.c:305
     b30:	5280040d 	mov	w13, #0x20                  	// #32
/optee/optee_os/lib/libutils/ext/snprintk.c:296
     b34:	38401798 	ldrb	w24, [x28], #1
/optee/optee_os/lib/libutils/ext/snprintk.c:297
     b38:	7100e71f 	cmp	w24, #0x39
     b3c:	5400036c 	b.gt	ba8 <kprintf.constprop.0+0x120>
     b40:	71007f1f 	cmp	w24, #0x1f
     b44:	54004f8d 	b.le	1534 <kprintf.constprop.0+0xaac>
     b48:	51008300 	sub	w0, w24, #0x20
     b4c:	7100641f 	cmp	w0, #0x19
     b50:	54000328 	b.hi	bb4 <kprintf.constprop.0+0x12c>  // b.pmore
     b54:	f9404fe6 	ldr	x6, [sp, #152]
     b58:	386048c0 	ldrb	w0, [x6, w0, uxtw]
     b5c:	10000066 	adr	x6, b68 <kprintf.constprop.0+0xe0>
     b60:	8b2088c0 	add	x0, x6, w0, sxtb #2
     b64:	d61f0000 	br	x0
/optee/optee_os/lib/libutils/ext/snprintk.c:267
     b68:	d2800019 	mov	x25, #0x0                   	// #0
     b6c:	17ffffdd 	b	ae0 <kprintf.constprop.0+0x58>
/optee/optee_os/lib/libutils/ext/snprintk.c:282
     b70:	1100075a 	add	w26, w26, #0x1
/optee/optee_os/lib/libutils/ext/snprintk.c:283
     b74:	b40000b6 	cbz	x22, b88 <kprintf.constprop.0+0x100>
     b78:	f100013f 	cmp	x9, #0x0
     b7c:	fa5912c0 	ccmp	x22, x25, #0x0, ne  // ne = any
     b80:	54000042 	b.cs	b88 <kprintf.constprop.0+0x100>  // b.hs, b.nlast
     b84:	380016c0 	strb	w0, [x22], #1
/optee/optee_os/lib/libutils/ext/snprintk.c:281
     b88:	9100079c 	add	x28, x28, #0x1
     b8c:	17ffffda 	b	af4 <kprintf.constprop.0+0x6c>
/optee/optee_os/lib/libutils/ext/snprintk.c:297
     b90:	52800561 	mov	w1, #0x2b                  	// #43
     b94:	17ffffe8 	b	b34 <kprintf.constprop.0+0xac>
     b98:	78605840 	ldrh	w0, [x2, w0, uxtw #1]
     b9c:	10000066 	adr	x6, ba8 <kprintf.constprop.0+0x120>
     ba0:	8b20a8c0 	add	x0, x6, w0, sxth #2
     ba4:	d61f0000 	br	x0
     ba8:	51011300 	sub	w0, w24, #0x44
     bac:	7100d81f 	cmp	w0, #0x36
     bb0:	54ffff49 	b.ls	b98 <kprintf.constprop.0+0x110>  // b.plast
/optee/optee_os/lib/libutils/ext/snprintk.c:554
     bb4:	2a0403f4 	mov	w20, w4
     bb8:	aa0303f3 	mov	x19, x3
/optee/optee_os/lib/libutils/ext/snprintk.c:551
     bbc:	390303f8 	strb	w24, [sp, #192]
/optee/optee_os/lib/libutils/ext/snprintk.c:554
     bc0:	1400005a 	b	d28 <kprintf.constprop.0+0x2a0>
/optee/optee_os/lib/libutils/ext/snprintk.c:305
     bc4:	7100003f 	cmp	w1, #0x0
     bc8:	1a8d1021 	csel	w1, w1, w13, ne  // ne = any
     bcc:	17ffffda 	b	b34 <kprintf.constprop.0+0xac>
/optee/optee_os/lib/libutils/ext/snprintk.c:308
     bd0:	320002b5 	orr	w21, w21, #0x1
/optee/optee_os/lib/libutils/ext/snprintk.c:309
     bd4:	17ffffd8 	b	b34 <kprintf.constprop.0+0xac>
/optee/optee_os/lib/libutils/ext/snprintk.c:317
     bd8:	37f80124 	tbnz	w4, #31, bfc <kprintf.constprop.0+0x174>
     bdc:	91002c66 	add	x6, x3, #0xb
     be0:	aa0303e0 	mov	x0, x3
     be4:	927df0c3 	and	x3, x6, #0xfffffffffffffff8
     be8:	b940000b 	ldr	w11, [x0]
     bec:	36fffa4b 	tbz	w11, #31, b34 <kprintf.constprop.0+0xac>
/optee/optee_os/lib/libutils/ext/snprintk.c:319
     bf0:	4b0b03eb 	neg	w11, w11
/optee/optee_os/lib/libutils/ext/snprintk.c:322
     bf4:	321e02b5 	orr	w21, w21, #0x4
/optee/optee_os/lib/libutils/ext/snprintk.c:323
     bf8:	17ffffcf 	b	b34 <kprintf.constprop.0+0xac>
/optee/optee_os/lib/libutils/ext/snprintk.c:317
     bfc:	11002086 	add	w6, w4, #0x8
     c00:	710000df 	cmp	w6, #0x0
     c04:	540000cd 	b.le	c1c <kprintf.constprop.0+0x194>
     c08:	91002c68 	add	x8, x3, #0xb
     c0c:	aa0303e0 	mov	x0, x3
     c10:	2a0603e4 	mov	w4, w6
     c14:	927df103 	and	x3, x8, #0xfffffffffffffff8
     c18:	17fffff4 	b	be8 <kprintf.constprop.0+0x160>
     c1c:	8b24c360 	add	x0, x27, w4, sxtw
     c20:	2a0603e4 	mov	w4, w6
     c24:	17fffff1 	b	be8 <kprintf.constprop.0+0x160>
/optee/optee_os/lib/libutils/ext/snprintk.c:328
     c28:	38401798 	ldrb	w24, [x28], #1
     c2c:	7100ab1f 	cmp	w24, #0x2a
     c30:	54000361 	b.ne	c9c <kprintf.constprop.0+0x214>  // b.any
/optee/optee_os/lib/libutils/ext/snprintk.c:329
     c34:	37f80144 	tbnz	w4, #31, c5c <kprintf.constprop.0+0x1d4>
     c38:	91002c60 	add	x0, x3, #0xb
     c3c:	2a0403e6 	mov	w6, w4
     c40:	927df000 	and	x0, x0, #0xfffffffffffffff8
/optee/optee_os/lib/libutils/ext/snprintk.c:330
     c44:	b9400065 	ldr	w5, [x3]
/optee/optee_os/lib/libutils/ext/snprintk.c:331
     c48:	2a0603e4 	mov	w4, w6
     c4c:	aa0003e3 	mov	x3, x0
/optee/optee_os/lib/libutils/ext/snprintk.c:330
     c50:	710000bf 	cmp	w5, #0x0
     c54:	1a87a0a5 	csel	w5, w5, w7, ge  // ge = tcont
/optee/optee_os/lib/libutils/ext/snprintk.c:331
     c58:	17ffffb7 	b	b34 <kprintf.constprop.0+0xac>
/optee/optee_os/lib/libutils/ext/snprintk.c:329
     c5c:	11002086 	add	w6, w4, #0x8
     c60:	710000df 	cmp	w6, #0x0
     c64:	5400008d 	b.le	c74 <kprintf.constprop.0+0x1ec>
     c68:	91002c60 	add	x0, x3, #0xb
     c6c:	927df000 	and	x0, x0, #0xfffffffffffffff8
     c70:	17fffff5 	b	c44 <kprintf.constprop.0+0x1bc>
     c74:	aa0303e0 	mov	x0, x3
     c78:	8b24c363 	add	x3, x27, w4, sxtw
     c7c:	17fffff2 	b	c44 <kprintf.constprop.0+0x1bc>
/optee/optee_os/lib/libutils/ext/snprintk.c:335
     c80:	52800146 	mov	w6, #0xa                   	// #10
/optee/optee_os/lib/libutils/ext/snprintk.c:336
     c84:	38401798 	ldrb	w24, [x28], #1
/optee/optee_os/lib/libutils/ext/snprintk.c:335
     c88:	1b0600a5 	madd	w5, w5, w6, w0
/optee/optee_os/lib/libutils/ext/snprintk.c:334
     c8c:	5100c300 	sub	w0, w24, #0x30
     c90:	7100241f 	cmp	w0, #0x9
     c94:	54ffff69 	b.ls	c80 <kprintf.constprop.0+0x1f8>  // b.plast
     c98:	17ffffa8 	b	b38 <kprintf.constprop.0+0xb0>
/optee/optee_os/lib/libutils/ext/snprintk.c:333
     c9c:	52800005 	mov	w5, #0x0                   	// #0
     ca0:	17fffffb 	b	c8c <kprintf.constprop.0+0x204>
/optee/optee_os/lib/libutils/ext/snprintk.c:346
     ca4:	321602b5 	orr	w21, w21, #0x400
/optee/optee_os/lib/libutils/ext/snprintk.c:347
     ca8:	17ffffa3 	b	b34 <kprintf.constprop.0+0xac>
/optee/optee_os/lib/libutils/ext/snprintk.c:297
     cac:	5280000b 	mov	w11, #0x0                   	// #0
/optee/optee_os/lib/libutils/ext/snprintk.c:352
     cb0:	5100c308 	sub	w8, w24, #0x30
     cb4:	52800140 	mov	w0, #0xa                   	// #10
/optee/optee_os/lib/libutils/ext/snprintk.c:353
     cb8:	38401798 	ldrb	w24, [x28], #1
/optee/optee_os/lib/libutils/ext/snprintk.c:352
     cbc:	1b00216b 	madd	w11, w11, w0, w8
/optee/optee_os/lib/libutils/ext/snprintk.c:354
     cc0:	5100c300 	sub	w0, w24, #0x30
     cc4:	7100241f 	cmp	w0, #0x9
     cc8:	54ffff49 	b.ls	cb0 <kprintf.constprop.0+0x228>  // b.plast
     ccc:	17ffff9b 	b	b38 <kprintf.constprop.0+0xb0>
/optee/optee_os/lib/libutils/ext/snprintk.c:358
     cd0:	321a02b5 	orr	w21, w21, #0x40
/optee/optee_os/lib/libutils/ext/snprintk.c:359
     cd4:	17ffff98 	b	b34 <kprintf.constprop.0+0xac>
/optee/optee_os/lib/libutils/ext/snprintk.c:361
     cd8:	321902b5 	orr	w21, w21, #0x80
/optee/optee_os/lib/libutils/ext/snprintk.c:362
     cdc:	17ffff96 	b	b34 <kprintf.constprop.0+0xac>
/optee/optee_os/lib/libutils/ext/snprintk.c:364
     ce0:	39400380 	ldrb	w0, [x28]
     ce4:	7101b01f 	cmp	w0, #0x6c
     ce8:	54000081 	b.ne	cf8 <kprintf.constprop.0+0x270>  // b.any
/optee/optee_os/lib/libutils/ext/snprintk.c:328
     cec:	9100079c 	add	x28, x28, #0x1
/optee/optee_os/lib/libutils/ext/snprintk.c:372
     cf0:	321b02b5 	orr	w21, w21, #0x20
/optee/optee_os/lib/libutils/ext/snprintk.c:373
     cf4:	17ffff90 	b	b34 <kprintf.constprop.0+0xac>
/optee/optee_os/lib/libutils/ext/snprintk.c:368
     cf8:	321c02b5 	orr	w21, w21, #0x10
     cfc:	17ffff8e 	b	b34 <kprintf.constprop.0+0xac>
/optee/optee_os/lib/libutils/ext/snprintk.c:375
     d00:	321802b5 	orr	w21, w21, #0x100
/optee/optee_os/lib/libutils/ext/snprintk.c:376
     d04:	17ffff8c 	b	b34 <kprintf.constprop.0+0xac>
/optee/optee_os/lib/libutils/ext/snprintk.c:378
     d08:	321702b5 	orr	w21, w21, #0x200
/optee/optee_os/lib/libutils/ext/snprintk.c:379
     d0c:	17ffff8a 	b	b34 <kprintf.constprop.0+0xac>
/optee/optee_os/lib/libutils/ext/snprintk.c:381
     d10:	37f80164 	tbnz	w4, #31, d3c <kprintf.constprop.0+0x2b4>
     d14:	91002c73 	add	x19, x3, #0xb
     d18:	2a0403f4 	mov	w20, w4
     d1c:	927df273 	and	x19, x19, #0xfffffffffffffff8
     d20:	b9400060 	ldr	w0, [x3]
     d24:	390303e0 	strb	w0, [sp, #192]
/optee/optee_os/lib/libutils/ext/snprintk.c:550
     d28:	910303ed 	add	x13, sp, #0xc0
/optee/optee_os/lib/libutils/ext/snprintk.c:552
     d2c:	52800025 	mov	w5, #0x1                   	// #1
/optee/optee_os/lib/libutils/ext/snprintk.c:291
     d30:	52800002 	mov	w2, #0x0                   	// #0
/optee/optee_os/lib/libutils/ext/snprintk.c:553
     d34:	52800001 	mov	w1, #0x0                   	// #0
/optee/optee_os/lib/libutils/ext/snprintk.c:554
     d38:	140000fa 	b	1120 <kprintf.constprop.0+0x698>
/optee/optee_os/lib/libutils/ext/snprintk.c:381
     d3c:	11002094 	add	w20, w4, #0x8
     d40:	7100029f 	cmp	w20, #0x0
     d44:	5400008d 	b.le	d54 <kprintf.constprop.0+0x2cc>
     d48:	91002c73 	add	x19, x3, #0xb
     d4c:	927df273 	and	x19, x19, #0xfffffffffffffff8
     d50:	17fffff4 	b	d20 <kprintf.constprop.0+0x298>
     d54:	aa0303f3 	mov	x19, x3
     d58:	8b24c363 	add	x3, x27, w4, sxtw
     d5c:	17fffff1 	b	d20 <kprintf.constprop.0+0x298>
/optee/optee_os/lib/libutils/ext/snprintk.c:386
     d60:	321c02b5 	orr	w21, w21, #0x10
/optee/optee_os/lib/libutils/ext/snprintk.c:390
     d64:	363802f5 	tbz	w21, #7, dc0 <kprintf.constprop.0+0x338>
     d68:	37f80424 	tbnz	w4, #31, dec <kprintf.constprop.0+0x364>
     d6c:	91003c73 	add	x19, x3, #0xf
     d70:	2a0403f4 	mov	w20, w4
     d74:	927df273 	and	x19, x19, #0xfffffffffffffff8
     d78:	f9400062 	ldr	x2, [x3]
/optee/optee_os/lib/libutils/ext/snprintk.c:391
     d7c:	b6f82d22 	tbz	x2, #63, 1320 <kprintf.constprop.0+0x898>
/optee/optee_os/lib/libutils/ext/snprintk.c:392
     d80:	cb0203e2 	neg	x2, x2
/optee/optee_os/lib/libutils/ext/snprintk.c:395
     d84:	52800020 	mov	w0, #0x1                   	// #1
/optee/optee_os/lib/libutils/ext/snprintk.c:393
     d88:	528005a1 	mov	w1, #0x2d                  	// #45
/optee/optee_os/lib/libutils/ext/snprintk.c:494
     d8c:	310004bf 	cmn	w5, #0x1
     d90:	54003b21 	b.ne	14f4 <kprintf.constprop.0+0xa6c>  // b.any
/optee/optee_os/lib/libutils/ext/snprintk.c:509
     d94:	7100041f 	cmp	w0, #0x1
     d98:	54002c80 	b.eq	1328 <kprintf.constprop.0+0x8a0>  // b.none
     d9c:	7100081f 	cmp	w0, #0x2
     da0:	54000ea1 	b.ne	f74 <kprintf.constprop.0+0x4ec>  // b.any
/optee/optee_os/lib/libutils/ext/snprintk.c:502
     da4:	910397ed 	add	x13, sp, #0xe5
/optee/optee_os/lib/libutils/ext/snprintk.c:531
     da8:	92400c40 	and	x0, x2, #0xf
/optee/optee_os/lib/libutils/ext/snprintk.c:532
     dac:	d344fc42 	lsr	x2, x2, #4
/optee/optee_os/lib/libutils/ext/snprintk.c:531
     db0:	38606ae0 	ldrb	w0, [x23, x0]
     db4:	381ffda0 	strb	w0, [x13, #-1]!
/optee/optee_os/lib/libutils/ext/snprintk.c:533
     db8:	b5ffff82 	cbnz	x2, da8 <kprintf.constprop.0+0x320>
     dbc:	1400007b 	b	fa8 <kprintf.constprop.0+0x520>
/optee/optee_os/lib/libutils/ext/snprintk.c:390
     dc0:	3747fd55 	tbnz	w21, #8, d68 <kprintf.constprop.0+0x2e0>
     dc4:	374ffd35 	tbnz	w21, #9, d68 <kprintf.constprop.0+0x2e0>
     dc8:	372ffd15 	tbnz	w21, #5, d68 <kprintf.constprop.0+0x2e0>
     dcc:	3727fcf5 	tbnz	w21, #4, d68 <kprintf.constprop.0+0x2e0>
     dd0:	36300335 	tbz	w21, #6, e34 <kprintf.constprop.0+0x3ac>
     dd4:	37f801e4 	tbnz	w4, #31, e10 <kprintf.constprop.0+0x388>
     dd8:	91002c73 	add	x19, x3, #0xb
     ddc:	2a0403f4 	mov	w20, w4
     de0:	927df273 	and	x19, x19, #0xfffffffffffffff8
     de4:	79800062 	ldrsh	x2, [x3]
     de8:	17ffffe5 	b	d7c <kprintf.constprop.0+0x2f4>
     dec:	11002094 	add	w20, w4, #0x8
     df0:	7100029f 	cmp	w20, #0x0
     df4:	5400008d 	b.le	e04 <kprintf.constprop.0+0x37c>
     df8:	91003c73 	add	x19, x3, #0xf
     dfc:	927df273 	and	x19, x19, #0xfffffffffffffff8
     e00:	17ffffde 	b	d78 <kprintf.constprop.0+0x2f0>
     e04:	aa0303f3 	mov	x19, x3
     e08:	8b24c363 	add	x3, x27, w4, sxtw
     e0c:	17ffffdb 	b	d78 <kprintf.constprop.0+0x2f0>
     e10:	11002094 	add	w20, w4, #0x8
     e14:	7100029f 	cmp	w20, #0x0
     e18:	5400008d 	b.le	e28 <kprintf.constprop.0+0x3a0>
     e1c:	91002c73 	add	x19, x3, #0xb
     e20:	927df273 	and	x19, x19, #0xfffffffffffffff8
     e24:	17fffff0 	b	de4 <kprintf.constprop.0+0x35c>
     e28:	aa0303f3 	mov	x19, x3
     e2c:	8b24c363 	add	x3, x27, w4, sxtw
     e30:	17ffffed 	b	de4 <kprintf.constprop.0+0x35c>
     e34:	37f800c4 	tbnz	w4, #31, e4c <kprintf.constprop.0+0x3c4>
     e38:	91002c73 	add	x19, x3, #0xb
     e3c:	2a0403f4 	mov	w20, w4
     e40:	927df273 	and	x19, x19, #0xfffffffffffffff8
     e44:	b9800062 	ldrsw	x2, [x3]
     e48:	17ffffcd 	b	d7c <kprintf.constprop.0+0x2f4>
     e4c:	11002094 	add	w20, w4, #0x8
     e50:	7100029f 	cmp	w20, #0x0
     e54:	5400008d 	b.le	e64 <kprintf.constprop.0+0x3dc>
     e58:	91002c73 	add	x19, x3, #0xb
     e5c:	927df273 	and	x19, x19, #0xfffffffffffffff8
     e60:	17fffff9 	b	e44 <kprintf.constprop.0+0x3bc>
     e64:	aa0303f3 	mov	x19, x3
     e68:	8b24c363 	add	x3, x27, w4, sxtw
     e6c:	17fffff6 	b	e44 <kprintf.constprop.0+0x3bc>
/optee/optee_os/lib/libutils/ext/snprintk.c:398
     e70:	36380135 	tbz	w21, #7, e94 <kprintf.constprop.0+0x40c>
/optee/optee_os/lib/libutils/ext/snprintk.c:407
     e74:	37f80284 	tbnz	w4, #31, ec4 <kprintf.constprop.0+0x43c>
     e78:	91003c73 	add	x19, x3, #0xf
     e7c:	2a0403f4 	mov	w20, w4
     e80:	927df273 	and	x19, x19, #0xfffffffffffffff8
     e84:	f9400060 	ldr	x0, [x3]
     e88:	93407f41 	sxtw	x1, w26
     e8c:	f9000001 	str	x1, [x0]
     e90:	17ffff19 	b	af4 <kprintf.constprop.0+0x6c>
/optee/optee_os/lib/libutils/ext/snprintk.c:400
     e94:	3747ff15 	tbnz	w21, #8, e74 <kprintf.constprop.0+0x3ec>
/optee/optee_os/lib/libutils/ext/snprintk.c:402
     e98:	374ffef5 	tbnz	w21, #9, e74 <kprintf.constprop.0+0x3ec>
/optee/optee_os/lib/libutils/ext/snprintk.c:404
     e9c:	372ffed5 	tbnz	w21, #5, e74 <kprintf.constprop.0+0x3ec>
/optee/optee_os/lib/libutils/ext/snprintk.c:406
     ea0:	3727feb5 	tbnz	w21, #4, e74 <kprintf.constprop.0+0x3ec>
/optee/optee_os/lib/libutils/ext/snprintk.c:408
     ea4:	36300355 	tbz	w21, #6, f0c <kprintf.constprop.0+0x484>
/optee/optee_os/lib/libutils/ext/snprintk.c:409
     ea8:	37f80204 	tbnz	w4, #31, ee8 <kprintf.constprop.0+0x460>
     eac:	91003c73 	add	x19, x3, #0xf
     eb0:	2a0403f4 	mov	w20, w4
     eb4:	927df273 	and	x19, x19, #0xfffffffffffffff8
     eb8:	f9400060 	ldr	x0, [x3]
     ebc:	7900001a 	strh	w26, [x0]
     ec0:	17ffff0d 	b	af4 <kprintf.constprop.0+0x6c>
/optee/optee_os/lib/libutils/ext/snprintk.c:407
     ec4:	11002094 	add	w20, w4, #0x8
     ec8:	7100029f 	cmp	w20, #0x0
     ecc:	5400008d 	b.le	edc <kprintf.constprop.0+0x454>
     ed0:	91003c73 	add	x19, x3, #0xf
     ed4:	927df273 	and	x19, x19, #0xfffffffffffffff8
     ed8:	17ffffeb 	b	e84 <kprintf.constprop.0+0x3fc>
     edc:	aa0303f3 	mov	x19, x3
     ee0:	8b24c363 	add	x3, x27, w4, sxtw
     ee4:	17ffffe8 	b	e84 <kprintf.constprop.0+0x3fc>
/optee/optee_os/lib/libutils/ext/snprintk.c:409
     ee8:	11002094 	add	w20, w4, #0x8
     eec:	7100029f 	cmp	w20, #0x0
     ef0:	5400008d 	b.le	f00 <kprintf.constprop.0+0x478>
     ef4:	91003c73 	add	x19, x3, #0xf
     ef8:	927df273 	and	x19, x19, #0xfffffffffffffff8
     efc:	17ffffef 	b	eb8 <kprintf.constprop.0+0x430>
     f00:	aa0303f3 	mov	x19, x3
     f04:	8b24c363 	add	x3, x27, w4, sxtw
     f08:	17ffffec 	b	eb8 <kprintf.constprop.0+0x430>
/optee/optee_os/lib/libutils/ext/snprintk.c:411
     f0c:	37f800e4 	tbnz	w4, #31, f28 <kprintf.constprop.0+0x4a0>
     f10:	91003c73 	add	x19, x3, #0xf
     f14:	2a0403f4 	mov	w20, w4
     f18:	927df273 	and	x19, x19, #0xfffffffffffffff8
     f1c:	f9400060 	ldr	x0, [x3]
     f20:	b900001a 	str	w26, [x0]
     f24:	17fffef4 	b	af4 <kprintf.constprop.0+0x6c>
     f28:	11002094 	add	w20, w4, #0x8
     f2c:	7100029f 	cmp	w20, #0x0
     f30:	5400008d 	b.le	f40 <kprintf.constprop.0+0x4b8>
     f34:	91003c73 	add	x19, x3, #0xf
     f38:	927df273 	and	x19, x19, #0xfffffffffffffff8
     f3c:	17fffff8 	b	f1c <kprintf.constprop.0+0x494>
     f40:	aa0303f3 	mov	x19, x3
     f44:	8b24c363 	add	x3, x27, w4, sxtw
     f48:	17fffff5 	b	f1c <kprintf.constprop.0+0x494>
/optee/optee_os/lib/libutils/ext/snprintk.c:414
     f4c:	321c02b5 	orr	w21, w21, #0x10
/optee/optee_os/lib/libutils/ext/snprintk.c:417
     f50:	36380355 	tbz	w21, #7, fb8 <kprintf.constprop.0+0x530>
     f54:	37f80484 	tbnz	w4, #31, fe4 <kprintf.constprop.0+0x55c>
     f58:	91003c73 	add	x19, x3, #0xf
     f5c:	2a0403f4 	mov	w20, w4
     f60:	927df273 	and	x19, x19, #0xfffffffffffffff8
     f64:	f9400062 	ldr	x2, [x3]
/optee/optee_os/lib/libutils/ext/snprintk.c:494
     f68:	52800001 	mov	w1, #0x0                   	// #0
     f6c:	310004bf 	cmn	w5, #0x1
     f70:	54002c01 	b.ne	14f0 <kprintf.constprop.0+0xa68>  // b.any
/optee/optee_os/lib/libutils/ext/snprintk.c:502
     f74:	910397ed 	add	x13, sp, #0xe5
/optee/optee_os/lib/libutils/ext/snprintk.c:512
     f78:	12000840 	and	w0, w2, #0x7
     f7c:	aa0d03e4 	mov	x4, x13
     f80:	1100c000 	add	w0, w0, #0x30
     f84:	381ffda0 	strb	w0, [x13, #-1]!
/optee/optee_os/lib/libutils/ext/snprintk.c:513
     f88:	d343fc42 	lsr	x2, x2, #3
/optee/optee_os/lib/libutils/ext/snprintk.c:514
     f8c:	b5ffff62 	cbnz	x2, f78 <kprintf.constprop.0+0x4f0>
/optee/optee_os/lib/libutils/ext/snprintk.c:516
     f90:	360000d5 	tbz	w21, #0, fa8 <kprintf.constprop.0+0x520>
     f94:	7100c01f 	cmp	w0, #0x30
     f98:	54000080 	b.eq	fa8 <kprintf.constprop.0+0x520>  // b.none
/optee/optee_os/lib/libutils/ext/snprintk.c:517
     f9c:	52800600 	mov	w0, #0x30                  	// #48
     fa0:	381ff1a0 	sturb	w0, [x13, #-1]
     fa4:	d100088d 	sub	x13, x4, #0x2
/optee/optee_os/lib/libutils/ext/snprintk.c:543
     fa8:	2a0503e2 	mov	w2, w5
     fac:	910397e5 	add	x5, sp, #0xe5
     fb0:	4b0d00a5 	sub	w5, w5, w13
     fb4:	1400005b 	b	1120 <kprintf.constprop.0+0x698>
/optee/optee_os/lib/libutils/ext/snprintk.c:417
     fb8:	3747fcf5 	tbnz	w21, #8, f54 <kprintf.constprop.0+0x4cc>
     fbc:	374ffcd5 	tbnz	w21, #9, f54 <kprintf.constprop.0+0x4cc>
     fc0:	372ffcb5 	tbnz	w21, #5, f54 <kprintf.constprop.0+0x4cc>
     fc4:	3727fc95 	tbnz	w21, #4, f54 <kprintf.constprop.0+0x4cc>
     fc8:	36300335 	tbz	w21, #6, 102c <kprintf.constprop.0+0x5a4>
     fcc:	37f801e4 	tbnz	w4, #31, 1008 <kprintf.constprop.0+0x580>
     fd0:	91002c73 	add	x19, x3, #0xb
     fd4:	2a0403f4 	mov	w20, w4
     fd8:	927df273 	and	x19, x19, #0xfffffffffffffff8
     fdc:	79400062 	ldrh	w2, [x3]
     fe0:	17ffffe2 	b	f68 <kprintf.constprop.0+0x4e0>
     fe4:	11002094 	add	w20, w4, #0x8
     fe8:	7100029f 	cmp	w20, #0x0
     fec:	5400008d 	b.le	ffc <kprintf.constprop.0+0x574>
     ff0:	91003c73 	add	x19, x3, #0xf
     ff4:	927df273 	and	x19, x19, #0xfffffffffffffff8
     ff8:	17ffffdb 	b	f64 <kprintf.constprop.0+0x4dc>
     ffc:	aa0303f3 	mov	x19, x3
    1000:	8b24c363 	add	x3, x27, w4, sxtw
    1004:	17ffffd8 	b	f64 <kprintf.constprop.0+0x4dc>
    1008:	11002094 	add	w20, w4, #0x8
    100c:	7100029f 	cmp	w20, #0x0
    1010:	5400008d 	b.le	1020 <kprintf.constprop.0+0x598>
    1014:	91002c73 	add	x19, x3, #0xb
    1018:	927df273 	and	x19, x19, #0xfffffffffffffff8
    101c:	17fffff0 	b	fdc <kprintf.constprop.0+0x554>
    1020:	aa0303f3 	mov	x19, x3
    1024:	8b24c363 	add	x3, x27, w4, sxtw
    1028:	17ffffed 	b	fdc <kprintf.constprop.0+0x554>
    102c:	37f800c4 	tbnz	w4, #31, 1044 <kprintf.constprop.0+0x5bc>
    1030:	91002c73 	add	x19, x3, #0xb
    1034:	2a0403f4 	mov	w20, w4
    1038:	927df273 	and	x19, x19, #0xfffffffffffffff8
    103c:	b9400062 	ldr	w2, [x3]
    1040:	17ffffca 	b	f68 <kprintf.constprop.0+0x4e0>
    1044:	11002094 	add	w20, w4, #0x8
    1048:	7100029f 	cmp	w20, #0x0
    104c:	5400008d 	b.le	105c <kprintf.constprop.0+0x5d4>
    1050:	91002c73 	add	x19, x3, #0xb
    1054:	927df273 	and	x19, x19, #0xfffffffffffffff8
    1058:	17fffff9 	b	103c <kprintf.constprop.0+0x5b4>
    105c:	aa0303f3 	mov	x19, x3
    1060:	8b24c363 	add	x3, x27, w4, sxtw
    1064:	17fffff6 	b	103c <kprintf.constprop.0+0x5b4>
/optee/optee_os/lib/libutils/ext/snprintk.c:421
    1068:	b940abe0 	ldr	w0, [sp, #168]
    106c:	34000c80 	cbz	w0, 11fc <kprintf.constprop.0+0x774>
    1070:	39400380 	ldrb	w0, [x28]
    1074:	7101541f 	cmp	w0, #0x55
    1078:	54000c21 	b.ne	11fc <kprintf.constprop.0+0x774>  // b.any
    107c:	39400780 	ldrb	w0, [x28, #1]
    1080:	7101b01f 	cmp	w0, #0x6c
    1084:	54000bc1 	b.ne	11fc <kprintf.constprop.0+0x774>  // b.any
/optee/optee_os/lib/libutils/ext/snprintk.c:426
    1088:	91000b9c 	add	x28, x28, #0x2
/optee/optee_os/lib/libutils/ext/snprintk.c:427
    108c:	37f80a64 	tbnz	w4, #31, 11d8 <kprintf.constprop.0+0x750>
    1090:	91003c73 	add	x19, x3, #0xf
    1094:	2a0403f4 	mov	w20, w4
    1098:	927df273 	and	x19, x19, #0xfffffffffffffff8
    109c:	f9400061 	ldr	x1, [x3]
uuid2str():
/optee/optee_os/lib/libutils/ext/snprintk.c:229
    10a0:	910303ed 	add	x13, sp, #0xc0
    10a4:	d00000a2 	adrp	x2, 17000 <__text_end+0x393c>
    10a8:	91350442 	add	x2, x2, #0xd41
    10ac:	f90053ed 	str	x13, [sp, #160]
    10b0:	39403c20 	ldrb	w0, [x1, #15]
    10b4:	39402427 	ldrb	w7, [x1, #9]
    10b8:	39402026 	ldrb	w6, [x1, #8]
    10bc:	79400c25 	ldrh	w5, [x1, #6]
    10c0:	79400824 	ldrh	w4, [x1, #4]
    10c4:	b9002be0 	str	w0, [sp, #40]
    10c8:	b900afeb 	str	w11, [sp, #172]
    10cc:	39403820 	ldrb	w0, [x1, #14]
    10d0:	b90023e0 	str	w0, [sp, #32]
    10d4:	f9005be9 	str	x9, [sp, #176]
    10d8:	39403420 	ldrb	w0, [x1, #13]
    10dc:	b9001be0 	str	w0, [sp, #24]
    10e0:	39403020 	ldrb	w0, [x1, #12]
    10e4:	b90013e0 	str	w0, [sp, #16]
    10e8:	39402c20 	ldrb	w0, [x1, #11]
    10ec:	b9000be0 	str	w0, [sp, #8]
    10f0:	39402820 	ldrb	w0, [x1, #10]
    10f4:	b90003e0 	str	w0, [sp]
    10f8:	aa0d03e0 	mov	x0, x13
    10fc:	b9400023 	ldr	w3, [x1]
    1100:	d28004a1 	mov	x1, #0x25                  	// #37
    1104:	97fffe2d 	bl	9b8 <snprintk>
    1108:	b940afeb 	ldr	w11, [sp, #172]
kprintf():
/optee/optee_os/lib/libutils/ext/snprintk.c:466
    110c:	2a0003e5 	mov	w5, w0
    1110:	f94053ed 	ldr	x13, [sp, #160]
/optee/optee_os/lib/libutils/ext/snprintk.c:291
    1114:	52800002 	mov	w2, #0x0                   	// #0
    1118:	f9405be9 	ldr	x9, [sp, #176]
/optee/optee_os/lib/libutils/ext/snprintk.c:467
    111c:	52800001 	mov	w1, #0x0                   	// #0
/optee/optee_os/lib/libutils/ext/snprintk.c:571
    1120:	6b05005f 	cmp	w2, w5
    1124:	1a85a040 	csel	w0, w2, w5, ge  // ge = tcont
/optee/optee_os/lib/libutils/ext/snprintk.c:572
    1128:	340021c1 	cbz	w1, 1560 <kprintf.constprop.0+0xad8>
/optee/optee_os/lib/libutils/ext/snprintk.c:573
    112c:	11000400 	add	w0, w0, #0x1
/optee/optee_os/lib/libutils/ext/snprintk.c:578
    1130:	6b0b001f 	cmp	w0, w11
    1134:	1a8ba004 	csel	w4, w0, w11, ge  // ge = tcont
    1138:	0b04035a 	add	w26, w26, w4
/optee/optee_os/lib/libutils/ext/snprintk.c:581
    113c:	52808084 	mov	w4, #0x404                 	// #1028
    1140:	6a0402a4 	ands	w4, w21, w4
    1144:	540000a1 	b.ne	1158 <kprintf.constprop.0+0x6d0>  // b.any
/optee/optee_os/lib/libutils/ext/snprintk.c:582
    1148:	4b000166 	sub	w6, w11, w0
/optee/optee_os/lib/libutils/ext/snprintk.c:584
    114c:	52800407 	mov	w7, #0x20                  	// #32
/optee/optee_os/lib/libutils/ext/snprintk.c:583
    1150:	710000df 	cmp	w6, #0x0
    1154:	540020cc 	b.gt	156c <kprintf.constprop.0+0xae4>
/optee/optee_os/lib/libutils/ext/snprintk.c:588
    1158:	34002181 	cbz	w1, 1588 <kprintf.constprop.0+0xb00>
/optee/optee_os/lib/libutils/ext/snprintk.c:589
    115c:	b40000b6 	cbz	x22, 1170 <kprintf.constprop.0+0x6e8>
    1160:	f100013f 	cmp	x9, #0x0
    1164:	fa561322 	ccmp	x25, x22, #0x2, ne  // ne = any
    1168:	54000049 	b.ls	1170 <kprintf.constprop.0+0x6e8>  // b.plast
    116c:	380016c1 	strb	w1, [x22], #1
/optee/optee_os/lib/libutils/ext/snprintk.c:596
    1170:	7110009f 	cmp	w4, #0x400
    1174:	540000a1 	b.ne	1188 <kprintf.constprop.0+0x700>  // b.any
/optee/optee_os/lib/libutils/ext/snprintk.c:597
    1178:	4b000161 	sub	w1, w11, w0
/optee/optee_os/lib/libutils/ext/snprintk.c:599
    117c:	52800604 	mov	w4, #0x30                  	// #48
/optee/optee_os/lib/libutils/ext/snprintk.c:598
    1180:	7100003f 	cmp	w1, #0x0
    1184:	5400226c 	b.gt	15d0 <kprintf.constprop.0+0xb48>
/optee/optee_os/lib/libutils/ext/snprintk.c:603
    1188:	4b050042 	sub	w2, w2, w5
/optee/optee_os/lib/libutils/ext/snprintk.c:605
    118c:	52800601 	mov	w1, #0x30                  	// #48
/optee/optee_os/lib/libutils/ext/snprintk.c:604
    1190:	7100005f 	cmp	w2, #0x0
    1194:	540022cc 	b.gt	15ec <kprintf.constprop.0+0xb64>
    1198:	2a0503e5 	mov	w5, w5
    119c:	d2800001 	mov	x1, #0x0                   	// #0
/optee/optee_os/lib/libutils/ext/snprintk.c:608
    11a0:	eb05003f 	cmp	x1, x5
    11a4:	54002321 	b.ne	1608 <kprintf.constprop.0+0xb80>  // b.any
/optee/optee_os/lib/libutils/ext/snprintk.c:611
    11a8:	3617ca75 	tbz	w21, #2, af4 <kprintf.constprop.0+0x6c>
/optee/optee_os/lib/libutils/ext/snprintk.c:612
    11ac:	4b000160 	sub	w0, w11, w0
/optee/optee_os/lib/libutils/ext/snprintk.c:614
    11b0:	52800401 	mov	w1, #0x20                  	// #32
/optee/optee_os/lib/libutils/ext/snprintk.c:613
    11b4:	7100001f 	cmp	w0, #0x0
    11b8:	54ffc9ed 	b.le	af4 <kprintf.constprop.0+0x6c>
/optee/optee_os/lib/libutils/ext/snprintk.c:614
    11bc:	b40000b6 	cbz	x22, 11d0 <kprintf.constprop.0+0x748>
    11c0:	f100013f 	cmp	x9, #0x0
    11c4:	fa561322 	ccmp	x25, x22, #0x2, ne  // ne = any
    11c8:	54000049 	b.ls	11d0 <kprintf.constprop.0+0x748>  // b.plast
    11cc:	380016c1 	strb	w1, [x22], #1
    11d0:	51000400 	sub	w0, w0, #0x1
    11d4:	17fffff8 	b	11b4 <kprintf.constprop.0+0x72c>
/optee/optee_os/lib/libutils/ext/snprintk.c:427
    11d8:	11002094 	add	w20, w4, #0x8
    11dc:	7100029f 	cmp	w20, #0x0
    11e0:	5400008d 	b.le	11f0 <kprintf.constprop.0+0x768>
    11e4:	91003c73 	add	x19, x3, #0xf
    11e8:	927df273 	and	x19, x19, #0xfffffffffffffff8
    11ec:	17ffffac 	b	109c <kprintf.constprop.0+0x614>
    11f0:	aa0303f3 	mov	x19, x3
    11f4:	8b24c363 	add	x3, x27, w4, sxtw
    11f8:	17ffffa9 	b	109c <kprintf.constprop.0+0x614>
/optee/optee_os/lib/libutils/ext/snprintk.c:441
    11fc:	37f801c4 	tbnz	w4, #31, 1234 <kprintf.constprop.0+0x7ac>
    1200:	91003c73 	add	x19, x3, #0xf
    1204:	2a0403f4 	mov	w20, w4
    1208:	927df273 	and	x19, x19, #0xfffffffffffffff8
    120c:	f9400062 	ldr	x2, [x3]
/optee/optee_os/lib/libutils/ext/snprintk.c:443
    1210:	d00000b7 	adrp	x23, 17000 <__text_end+0x393c>
/optee/optee_os/lib/libutils/ext/snprintk.c:444
    1214:	321f02b5 	orr	w21, w21, #0x2
/optee/optee_os/lib/libutils/ext/snprintk.c:443
    1218:	911f4af7 	add	x23, x23, #0x7d2
/optee/optee_os/lib/libutils/ext/snprintk.c:445
    121c:	52800f18 	mov	w24, #0x78                  	// #120
/optee/optee_os/lib/libutils/ext/snprintk.c:494
    1220:	52800001 	mov	w1, #0x0                   	// #0
    1224:	310004bf 	cmn	w5, #0x1
    1228:	54ffdbe0 	b.eq	da4 <kprintf.constprop.0+0x31c>  // b.none
    122c:	52800040 	mov	w0, #0x2                   	// #2
    1230:	140000b1 	b	14f4 <kprintf.constprop.0+0xa6c>
/optee/optee_os/lib/libutils/ext/snprintk.c:441
    1234:	11002094 	add	w20, w4, #0x8
    1238:	7100029f 	cmp	w20, #0x0
    123c:	5400008d 	b.le	124c <kprintf.constprop.0+0x7c4>
    1240:	91003c73 	add	x19, x3, #0xf
    1244:	927df273 	and	x19, x19, #0xfffffffffffffff8
    1248:	17fffff1 	b	120c <kprintf.constprop.0+0x784>
    124c:	aa0303f3 	mov	x19, x3
    1250:	8b24c363 	add	x3, x27, w4, sxtw
    1254:	17ffffee 	b	120c <kprintf.constprop.0+0x784>
/optee/optee_os/lib/libutils/ext/snprintk.c:448
    1258:	37f80364 	tbnz	w4, #31, 12c4 <kprintf.constprop.0+0x83c>
    125c:	91003c73 	add	x19, x3, #0xf
    1260:	2a0403f4 	mov	w20, w4
    1264:	927df273 	and	x19, x19, #0xfffffffffffffff8
    1268:	f940006d 	ldr	x13, [x3]
    126c:	b500006d 	cbnz	x13, 1278 <kprintf.constprop.0+0x7f0>
/optee/optee_os/lib/libutils/ext/snprintk.c:450
    1270:	d00000a3 	adrp	x3, 17000 <__text_end+0x393c>
    1274:	9134e86d 	add	x13, x3, #0xd3a
/optee/optee_os/lib/libutils/ext/snprintk.c:451
    1278:	310004bf 	cmn	w5, #0x1
    127c:	54000360 	b.eq	12e8 <kprintf.constprop.0+0x860>  // b.none
/optee/optee_os/lib/libutils/ext/snprintk.c:457
    1280:	93407ca2 	sxtw	x2, w5
    1284:	aa0d03e0 	mov	x0, x13
    1288:	52800001 	mov	w1, #0x0                   	// #0
    128c:	f90053ed 	str	x13, [sp, #160]
    1290:	2915afe5 	stp	w5, w11, [sp, #172]
    1294:	f9005fe9 	str	x9, [sp, #184]
    1298:	94000100 	bl	1698 <memchr>
/optee/optee_os/lib/libutils/ext/snprintk.c:459
    129c:	2955afe5 	ldp	w5, w11, [sp, #172]
    12a0:	f94053ed 	ldr	x13, [sp, #160]
    12a4:	f9405fe9 	ldr	x9, [sp, #184]
    12a8:	b4000080 	cbz	x0, 12b8 <kprintf.constprop.0+0x830>
/optee/optee_os/lib/libutils/ext/snprintk.c:460
    12ac:	cb0d0000 	sub	x0, x0, x13
    12b0:	6b0000bf 	cmp	w5, w0
    12b4:	1a80d0a5 	csel	w5, w5, w0, le
/optee/optee_os/lib/libutils/ext/snprintk.c:291
    12b8:	52800002 	mov	w2, #0x0                   	// #0
/optee/optee_os/lib/libutils/ext/snprintk.c:467
    12bc:	52800001 	mov	w1, #0x0                   	// #0
    12c0:	17ffff98 	b	1120 <kprintf.constprop.0+0x698>
/optee/optee_os/lib/libutils/ext/snprintk.c:448
    12c4:	11002094 	add	w20, w4, #0x8
    12c8:	7100029f 	cmp	w20, #0x0
    12cc:	5400008d 	b.le	12dc <kprintf.constprop.0+0x854>
    12d0:	91003c73 	add	x19, x3, #0xf
    12d4:	927df273 	and	x19, x19, #0xfffffffffffffff8
    12d8:	17ffffe4 	b	1268 <kprintf.constprop.0+0x7e0>
    12dc:	aa0303f3 	mov	x19, x3
    12e0:	8b24c363 	add	x3, x27, w4, sxtw
    12e4:	17ffffe1 	b	1268 <kprintf.constprop.0+0x7e0>
/optee/optee_os/lib/libutils/ext/snprintk.c:466
    12e8:	aa0d03e0 	mov	x0, x13
    12ec:	f90053ed 	str	x13, [sp, #160]
    12f0:	b900afeb 	str	w11, [sp, #172]
    12f4:	f9005be9 	str	x9, [sp, #176]
    12f8:	940000f3 	bl	16c4 <strlen>
    12fc:	17ffff83 	b	1108 <kprintf.constprop.0+0x680>
/optee/optee_os/lib/libutils/ext/snprintk.c:470
    1300:	321c02b5 	orr	w21, w21, #0x10
/optee/optee_os/lib/libutils/ext/snprintk.c:473
    1304:	36380235 	tbz	w21, #7, 1348 <kprintf.constprop.0+0x8c0>
    1308:	37f80364 	tbnz	w4, #31, 1374 <kprintf.constprop.0+0x8ec>
    130c:	91003c73 	add	x19, x3, #0xf
    1310:	2a0403f4 	mov	w20, w4
    1314:	927df273 	and	x19, x19, #0xfffffffffffffff8
    1318:	f9400062 	ldr	x2, [x3]
/optee/optee_os/lib/libutils/ext/snprintk.c:488
    131c:	52800001 	mov	w1, #0x0                   	// #0
/optee/optee_os/lib/libutils/ext/snprintk.c:494
    1320:	310004bf 	cmn	w5, #0x1
    1324:	54000f61 	b.ne	1510 <kprintf.constprop.0+0xa88>  // b.any
/optee/optee_os/lib/libutils/ext/snprintk.c:502
    1328:	910397e0 	add	x0, sp, #0xe5
/optee/optee_os/lib/libutils/ext/snprintk.c:523
    132c:	d2800144 	mov	x4, #0xa                   	// #10
    1330:	d100040d 	sub	x13, x0, #0x1
/optee/optee_os/lib/libutils/ext/snprintk.c:522
    1334:	f100245f 	cmp	x2, #0x9
    1338:	54000f08 	b.hi	1518 <kprintf.constprop.0+0xa90>  // b.pmore
/optee/optee_os/lib/libutils/ext/snprintk.c:526
    133c:	1100c042 	add	w2, w2, #0x30
    1340:	381ff002 	sturb	w2, [x0, #-1]
/optee/optee_os/lib/libutils/ext/snprintk.c:527
    1344:	17ffff19 	b	fa8 <kprintf.constprop.0+0x520>
/optee/optee_os/lib/libutils/ext/snprintk.c:473
    1348:	3747fe15 	tbnz	w21, #8, 1308 <kprintf.constprop.0+0x880>
    134c:	374ffdf5 	tbnz	w21, #9, 1308 <kprintf.constprop.0+0x880>
    1350:	372ffdd5 	tbnz	w21, #5, 1308 <kprintf.constprop.0+0x880>
    1354:	3727fdb5 	tbnz	w21, #4, 1308 <kprintf.constprop.0+0x880>
    1358:	36300335 	tbz	w21, #6, 13bc <kprintf.constprop.0+0x934>
    135c:	37f801e4 	tbnz	w4, #31, 1398 <kprintf.constprop.0+0x910>
    1360:	91002c73 	add	x19, x3, #0xb
    1364:	2a0403f4 	mov	w20, w4
    1368:	927df273 	and	x19, x19, #0xfffffffffffffff8
    136c:	79400062 	ldrh	w2, [x3]
    1370:	17ffffeb 	b	131c <kprintf.constprop.0+0x894>
    1374:	11002094 	add	w20, w4, #0x8
    1378:	7100029f 	cmp	w20, #0x0
    137c:	5400008d 	b.le	138c <kprintf.constprop.0+0x904>
    1380:	91003c73 	add	x19, x3, #0xf
    1384:	927df273 	and	x19, x19, #0xfffffffffffffff8
    1388:	17ffffe4 	b	1318 <kprintf.constprop.0+0x890>
    138c:	aa0303f3 	mov	x19, x3
    1390:	8b24c363 	add	x3, x27, w4, sxtw
    1394:	17ffffe1 	b	1318 <kprintf.constprop.0+0x890>
    1398:	11002094 	add	w20, w4, #0x8
    139c:	7100029f 	cmp	w20, #0x0
    13a0:	5400008d 	b.le	13b0 <kprintf.constprop.0+0x928>
    13a4:	91002c73 	add	x19, x3, #0xb
    13a8:	927df273 	and	x19, x19, #0xfffffffffffffff8
    13ac:	17fffff0 	b	136c <kprintf.constprop.0+0x8e4>
    13b0:	aa0303f3 	mov	x19, x3
    13b4:	8b24c363 	add	x3, x27, w4, sxtw
    13b8:	17ffffed 	b	136c <kprintf.constprop.0+0x8e4>
    13bc:	37f800c4 	tbnz	w4, #31, 13d4 <kprintf.constprop.0+0x94c>
    13c0:	91002c73 	add	x19, x3, #0xb
    13c4:	2a0403f4 	mov	w20, w4
    13c8:	927df273 	and	x19, x19, #0xfffffffffffffff8
    13cc:	b9400062 	ldr	w2, [x3]
    13d0:	17ffffd3 	b	131c <kprintf.constprop.0+0x894>
    13d4:	11002094 	add	w20, w4, #0x8
    13d8:	7100029f 	cmp	w20, #0x0
    13dc:	5400008d 	b.le	13ec <kprintf.constprop.0+0x964>
    13e0:	91002c73 	add	x19, x3, #0xb
    13e4:	927df273 	and	x19, x19, #0xfffffffffffffff8
    13e8:	17fffff9 	b	13cc <kprintf.constprop.0+0x944>
    13ec:	aa0303f3 	mov	x19, x3
    13f0:	8b24c363 	add	x3, x27, w4, sxtw
    13f4:	17fffff6 	b	13cc <kprintf.constprop.0+0x944>
/optee/optee_os/lib/libutils/ext/snprintk.c:297
    13f8:	d00000b7 	adrp	x23, 17000 <__text_end+0x393c>
    13fc:	911f4af7 	add	x23, x23, #0x7d2
    1400:	910046f7 	add	x23, x23, #0x11
/optee/optee_os/lib/libutils/ext/snprintk.c:481
    1404:	363801f5 	tbz	w21, #7, 1440 <kprintf.constprop.0+0x9b8>
    1408:	37f80324 	tbnz	w4, #31, 146c <kprintf.constprop.0+0x9e4>
    140c:	91003c73 	add	x19, x3, #0xf
    1410:	2a0403f4 	mov	w20, w4
    1414:	927df273 	and	x19, x19, #0xfffffffffffffff8
    1418:	f9400062 	ldr	x2, [x3]
/optee/optee_os/lib/libutils/ext/snprintk.c:484
    141c:	3607f035 	tbz	w21, #0, 1220 <kprintf.constprop.0+0x798>
    1420:	b4fff002 	cbz	x2, 1220 <kprintf.constprop.0+0x798>
/optee/optee_os/lib/libutils/ext/snprintk.c:485
    1424:	321f02b5 	orr	w21, w21, #0x2
/optee/optee_os/lib/libutils/ext/snprintk.c:482
    1428:	52800040 	mov	w0, #0x2                   	// #2
/optee/optee_os/lib/libutils/ext/snprintk.c:488
    142c:	52800001 	mov	w1, #0x0                   	// #0
    1430:	17fffe57 	b	d8c <kprintf.constprop.0+0x304>
/optee/optee_os/lib/libutils/ext/snprintk.c:480
    1434:	d00000b7 	adrp	x23, 17000 <__text_end+0x393c>
    1438:	911f4af7 	add	x23, x23, #0x7d2
    143c:	17fffff2 	b	1404 <kprintf.constprop.0+0x97c>
/optee/optee_os/lib/libutils/ext/snprintk.c:481
    1440:	3747fe55 	tbnz	w21, #8, 1408 <kprintf.constprop.0+0x980>
    1444:	374ffe35 	tbnz	w21, #9, 1408 <kprintf.constprop.0+0x980>
    1448:	372ffe15 	tbnz	w21, #5, 1408 <kprintf.constprop.0+0x980>
    144c:	3727fdf5 	tbnz	w21, #4, 1408 <kprintf.constprop.0+0x980>
    1450:	36300335 	tbz	w21, #6, 14b4 <kprintf.constprop.0+0xa2c>
    1454:	37f801e4 	tbnz	w4, #31, 1490 <kprintf.constprop.0+0xa08>
    1458:	91002c73 	add	x19, x3, #0xb
    145c:	2a0403f4 	mov	w20, w4
    1460:	927df273 	and	x19, x19, #0xfffffffffffffff8
    1464:	79400062 	ldrh	w2, [x3]
    1468:	17ffffed 	b	141c <kprintf.constprop.0+0x994>
    146c:	11002094 	add	w20, w4, #0x8
    1470:	7100029f 	cmp	w20, #0x0
    1474:	5400008d 	b.le	1484 <kprintf.constprop.0+0x9fc>
    1478:	91003c73 	add	x19, x3, #0xf
    147c:	927df273 	and	x19, x19, #0xfffffffffffffff8
    1480:	17ffffe6 	b	1418 <kprintf.constprop.0+0x990>
    1484:	aa0303f3 	mov	x19, x3
    1488:	8b24c363 	add	x3, x27, w4, sxtw
    148c:	17ffffe3 	b	1418 <kprintf.constprop.0+0x990>
    1490:	11002094 	add	w20, w4, #0x8
    1494:	7100029f 	cmp	w20, #0x0
    1498:	5400008d 	b.le	14a8 <kprintf.constprop.0+0xa20>
    149c:	91002c73 	add	x19, x3, #0xb
    14a0:	927df273 	and	x19, x19, #0xfffffffffffffff8
    14a4:	17fffff0 	b	1464 <kprintf.constprop.0+0x9dc>
    14a8:	aa0303f3 	mov	x19, x3
    14ac:	8b24c363 	add	x3, x27, w4, sxtw
    14b0:	17ffffed 	b	1464 <kprintf.constprop.0+0x9dc>
    14b4:	37f800c4 	tbnz	w4, #31, 14cc <kprintf.constprop.0+0xa44>
    14b8:	91002c73 	add	x19, x3, #0xb
    14bc:	2a0403f4 	mov	w20, w4
    14c0:	927df273 	and	x19, x19, #0xfffffffffffffff8
    14c4:	b9400062 	ldr	w2, [x3]
    14c8:	17ffffd5 	b	141c <kprintf.constprop.0+0x994>
    14cc:	11002094 	add	w20, w4, #0x8
    14d0:	7100029f 	cmp	w20, #0x0
    14d4:	5400008d 	b.le	14e4 <kprintf.constprop.0+0xa5c>
    14d8:	91002c73 	add	x19, x3, #0xb
    14dc:	927df273 	and	x19, x19, #0xfffffffffffffff8
    14e0:	17fffff9 	b	14c4 <kprintf.constprop.0+0xa3c>
    14e4:	aa0303f3 	mov	x19, x3
    14e8:	8b24c363 	add	x3, x27, w4, sxtw
    14ec:	17fffff6 	b	14c4 <kprintf.constprop.0+0xa3c>
/optee/optee_os/lib/libutils/ext/snprintk.c:494
    14f0:	52800000 	mov	w0, #0x0                   	// #0
/optee/optee_os/lib/libutils/ext/snprintk.c:503
    14f4:	f100005f 	cmp	x2, #0x0
/optee/optee_os/lib/libutils/ext/snprintk.c:495
    14f8:	12157ab5 	and	w21, w21, #0xfffffbff
/optee/optee_os/lib/libutils/ext/snprintk.c:503
    14fc:	7a4008a0 	ccmp	w5, #0x0, #0x0, eq  // eq = none
    1500:	54ffc4a1 	b.ne	d94 <kprintf.constprop.0+0x30c>  // b.any
/optee/optee_os/lib/libutils/ext/snprintk.c:502
    1504:	910397ed 	add	x13, sp, #0xe5
    1508:	52800005 	mov	w5, #0x0                   	// #0
    150c:	17fffea7 	b	fa8 <kprintf.constprop.0+0x520>
/optee/optee_os/lib/libutils/ext/snprintk.c:494
    1510:	52800020 	mov	w0, #0x1                   	// #1
    1514:	17fffff8 	b	14f4 <kprintf.constprop.0+0xa6c>
/optee/optee_os/lib/libutils/ext/snprintk.c:523
    1518:	9ac40846 	udiv	x6, x2, x4
    151c:	9b0488c2 	msub	x2, x6, x4, x2
    1520:	1100c042 	add	w2, w2, #0x30
    1524:	381ff002 	sturb	w2, [x0, #-1]
/optee/optee_os/lib/libutils/ext/snprintk.c:524
    1528:	aa0603e2 	mov	x2, x6
    152c:	aa0d03e0 	mov	x0, x13
    1530:	17ffff80 	b	1330 <kprintf.constprop.0+0x8a8>
/optee/optee_os/lib/libutils/ext/snprintk.c:547
    1534:	35ffb418 	cbnz	w24, bb4 <kprintf.constprop.0+0x12c>
/optee/optee_os/lib/libutils/ext/snprintk.c:619
    1538:	b4000049 	cbz	x9, 1540 <kprintf.constprop.0+0xab8>
/optee/optee_os/lib/libutils/ext/snprintk.c:620
    153c:	f9000136 	str	x22, [x9]
/optee/optee_os/lib/libutils/ext/snprintk.c:622
    1540:	900000c0 	adrp	x0, 19000 <_DYNAMIC>
    1544:	f9409800 	ldr	x0, [x0, #304]
    1548:	f94077e2 	ldr	x2, [sp, #232]
    154c:	f9400001 	ldr	x1, [x0]
    1550:	eb010042 	subs	x2, x2, x1
    1554:	d2800001 	mov	x1, #0x0                   	// #0
    1558:	54000680 	b.eq	1628 <kprintf.constprop.0+0xba0>  // b.none
    155c:	97fffbf8 	bl	53c <__stack_chk_fail>
/optee/optee_os/lib/libutils/ext/snprintk.c:574
    1560:	360fde95 	tbz	w21, #1, 1130 <kprintf.constprop.0+0x6a8>
/optee/optee_os/lib/libutils/ext/snprintk.c:575
    1564:	11000800 	add	w0, w0, #0x2
    1568:	17fffef2 	b	1130 <kprintf.constprop.0+0x6a8>
/optee/optee_os/lib/libutils/ext/snprintk.c:584
    156c:	b40000b6 	cbz	x22, 1580 <kprintf.constprop.0+0xaf8>
    1570:	f100013f 	cmp	x9, #0x0
    1574:	fa561322 	ccmp	x25, x22, #0x2, ne  // ne = any
    1578:	54000049 	b.ls	1580 <kprintf.constprop.0+0xaf8>  // b.plast
    157c:	380016c7 	strb	w7, [x22], #1
    1580:	510004c6 	sub	w6, w6, #0x1
    1584:	17fffef3 	b	1150 <kprintf.constprop.0+0x6c8>
/optee/optee_os/lib/libutils/ext/snprintk.c:590
    1588:	360fdf55 	tbz	w21, #1, 1170 <kprintf.constprop.0+0x6e8>
/optee/optee_os/lib/libutils/ext/snprintk.c:591
    158c:	b4ffdf36 	cbz	x22, 1170 <kprintf.constprop.0+0x6e8>
    1590:	f100013f 	cmp	x9, #0x0
    1594:	1a9f17e6 	cset	w6, eq  // eq = none
    1598:	710000df 	cmp	w6, #0x0
    159c:	fa560322 	ccmp	x25, x22, #0x2, eq  // eq = none
    15a0:	54ffde89 	b.ls	1170 <kprintf.constprop.0+0x6e8>  // b.plast
    15a4:	aa1603e1 	mov	x1, x22
    15a8:	52800607 	mov	w7, #0x30                  	// #48
/optee/optee_os/lib/libutils/ext/snprintk.c:592
    15ac:	710000df 	cmp	w6, #0x0
/optee/optee_os/lib/libutils/ext/snprintk.c:591
    15b0:	38001427 	strb	w7, [x1], #1
/optee/optee_os/lib/libutils/ext/snprintk.c:592
    15b4:	fa410322 	ccmp	x25, x1, #0x2, eq  // eq = none
    15b8:	54000089 	b.ls	15c8 <kprintf.constprop.0+0xb40>  // b.plast
    15bc:	91000ad6 	add	x22, x22, #0x2
    15c0:	381ff2d8 	sturb	w24, [x22, #-1]
    15c4:	17fffeeb 	b	1170 <kprintf.constprop.0+0x6e8>
    15c8:	aa0103f6 	mov	x22, x1
    15cc:	17fffee9 	b	1170 <kprintf.constprop.0+0x6e8>
/optee/optee_os/lib/libutils/ext/snprintk.c:599
    15d0:	b40000b6 	cbz	x22, 15e4 <kprintf.constprop.0+0xb5c>
    15d4:	f100013f 	cmp	x9, #0x0
    15d8:	fa561322 	ccmp	x25, x22, #0x2, ne  // ne = any
    15dc:	54000049 	b.ls	15e4 <kprintf.constprop.0+0xb5c>  // b.plast
    15e0:	380016c4 	strb	w4, [x22], #1
    15e4:	51000421 	sub	w1, w1, #0x1
    15e8:	17fffee6 	b	1180 <kprintf.constprop.0+0x6f8>
/optee/optee_os/lib/libutils/ext/snprintk.c:605
    15ec:	b40000b6 	cbz	x22, 1600 <kprintf.constprop.0+0xb78>
    15f0:	f100013f 	cmp	x9, #0x0
    15f4:	fa561322 	ccmp	x25, x22, #0x2, ne  // ne = any
    15f8:	54000049 	b.ls	1600 <kprintf.constprop.0+0xb78>  // b.plast
    15fc:	380016c1 	strb	w1, [x22], #1
    1600:	51000442 	sub	w2, w2, #0x1
    1604:	17fffee3 	b	1190 <kprintf.constprop.0+0x708>
/optee/optee_os/lib/libutils/ext/snprintk.c:609
    1608:	b40000d6 	cbz	x22, 1620 <kprintf.constprop.0+0xb98>
    160c:	f100013f 	cmp	x9, #0x0
    1610:	fa561322 	ccmp	x25, x22, #0x2, ne  // ne = any
    1614:	54000069 	b.ls	1620 <kprintf.constprop.0+0xb98>  // b.plast
    1618:	386169a2 	ldrb	w2, [x13, x1]
    161c:	380016c2 	strb	w2, [x22], #1
/optee/optee_os/lib/libutils/ext/snprintk.c:608
    1620:	91000421 	add	x1, x1, #0x1
    1624:	17fffedf 	b	11a0 <kprintf.constprop.0+0x718>
/optee/optee_os/lib/libutils/ext/snprintk.c:622
    1628:	2a1a03e0 	mov	w0, w26
    162c:	a9437bfd 	ldp	x29, x30, [sp, #48]
    1630:	a94453f3 	ldp	x19, x20, [sp, #64]
    1634:	a9455bf5 	ldp	x21, x22, [sp, #80]
    1638:	a94663f7 	ldp	x23, x24, [sp, #96]
    163c:	a9476bf9 	ldp	x25, x26, [sp, #112]
    1640:	a94873fb 	ldp	x27, x28, [sp, #128]
    1644:	9103c3ff 	add	sp, sp, #0xf0
    1648:	d65f03c0 	ret

000000000000164c <__vsprintf>:
__vsprintf():
/optee/optee_os/lib/libutils/ext/snprintk.c:155
    164c:	a9bc7bfd 	stp	x29, x30, [sp, #-64]!
/optee/optee_os/lib/libutils/ext/snprintk.c:156
    1650:	910083e3 	add	x3, sp, #0x20
/optee/optee_os/lib/libutils/ext/snprintk.c:155
    1654:	910003fd 	mov	x29, sp
    1658:	a90153f3 	stp	x19, x20, [sp, #16]
    165c:	aa0003f4 	mov	x20, x0
    1660:	aa0103f3 	mov	x19, x1
/optee/optee_os/lib/libutils/ext/snprintk.c:156
    1664:	aa0303e0 	mov	x0, x3
/optee/optee_os/lib/libutils/ext/snprintk.c:155
    1668:	aa0203e1 	mov	x1, x2
/optee/optee_os/lib/libutils/ext/snprintk.c:156
    166c:	d2800402 	mov	x2, #0x20                  	// #32
    1670:	97fffa64 	bl	0 <memcpy>
    1674:	aa1403e2 	mov	x2, x20
    1678:	aa0003e3 	mov	x3, x0
    167c:	52800004 	mov	w4, #0x0                   	// #0
    1680:	aa1303e0 	mov	x0, x19
    1684:	d2800001 	mov	x1, #0x0                   	// #0
    1688:	97fffd00 	bl	a88 <kprintf.constprop.0>
/optee/optee_os/lib/libutils/ext/snprintk.c:157
    168c:	a94153f3 	ldp	x19, x20, [sp, #16]
    1690:	a8c47bfd 	ldp	x29, x30, [sp], #64
    1694:	d65f03c0 	ret

0000000000001698 <memchr>:
memchr():
/optee/optee_os/lib/libutils/isoc/newlib/memchr.c:109
    1698:	12001c21 	and	w1, w1, #0xff
/optee/optee_os/lib/libutils/isoc/newlib/memchr.c:153
    169c:	8b020002 	add	x2, x0, x2
    16a0:	eb02001f 	cmp	x0, x2
    16a4:	54000061 	b.ne	16b0 <memchr+0x18>  // b.any
/optee/optee_os/lib/libutils/isoc/newlib/memchr.c:159
    16a8:	d2800000 	mov	x0, #0x0                   	// #0
/optee/optee_os/lib/libutils/isoc/newlib/memchr.c:160
    16ac:	d65f03c0 	ret
/optee/optee_os/lib/libutils/isoc/newlib/memchr.c:154
    16b0:	39400003 	ldrb	w3, [x0]
    16b4:	6b01007f 	cmp	w3, w1
    16b8:	54ffffa0 	b.eq	16ac <memchr+0x14>  // b.none
/optee/optee_os/lib/libutils/isoc/newlib/memchr.c:156
    16bc:	91000400 	add	x0, x0, #0x1
    16c0:	17fffff8 	b	16a0 <memchr+0x8>

00000000000016c4 <strlen>:
strlen():
/optee/optee_os/lib/libutils/isoc/newlib/strlen.c:117
    16c4:	aa0003e1 	mov	x1, x0
    16c8:	39400022 	ldrb	w2, [x1]
    16cc:	35000062 	cbnz	w2, 16d8 <strlen+0x14>
/optee/optee_os/lib/libutils/isoc/newlib/strlen.c:120
    16d0:	cb000020 	sub	x0, x1, x0
    16d4:	d65f03c0 	ret
/optee/optee_os/lib/libutils/isoc/newlib/strlen.c:118
    16d8:	91000421 	add	x1, x1, #0x1
    16dc:	17fffffb 	b	16c8 <strlen+0x4>

00000000000016e0 <trace_ext_puts>:
trace_ext_puts():
/optee/optee_os/lib/libutee/trace_ext.c:22
    16e0:	a9be7bfd 	stp	x29, x30, [sp, #-32]!
    16e4:	910003fd 	mov	x29, sp
    16e8:	f9000bf3 	str	x19, [sp, #16]
    16ec:	aa0003f3 	mov	x19, x0
/optee/optee_os/lib/libutee/trace_ext.c:26
    16f0:	97fffff5 	bl	16c4 <strlen>
    16f4:	aa0003e1 	mov	x1, x0
    16f8:	aa1303e0 	mov	x0, x19
/optee/optee_os/lib/libutee/trace_ext.c:28
    16fc:	f9400bf3 	ldr	x19, [sp, #16]
    1700:	a8c27bfd 	ldp	x29, x30, [sp], #32
/optee/optee_os/lib/libutee/trace_ext.c:26
    1704:	1400202d 	b	97b8 <_utee_log>

0000000000001708 <trace_ext_get_thread_id>:
trace_ext_get_thread_id():
/optee/optee_os/lib/libutee/trace_ext.c:33
    1708:	12800000 	mov	w0, #0xffffffff            	// #-1
    170c:	d65f03c0 	ret

0000000000001710 <printf>:
printf():
/optee/optee_os/lib/libutee/trace_ext.c:41
    1710:	d108c3ff 	sub	sp, sp, #0x230
    1714:	a9007bfd 	stp	x29, x30, [sp]
    1718:	910003fd 	mov	x29, sp
    171c:	a90153f3 	stp	x19, x20, [sp, #16]
    1720:	aa0003f3 	mov	x19, x0
    1724:	910823e0 	add	x0, sp, #0x208
    1728:	a91f8be1 	stp	x1, x2, [sp, #504]
    172c:	900000c1 	adrp	x1, 19000 <_DYNAMIC>
    1730:	3d805fe0 	str	q0, [sp, #368]
    1734:	3d8063e1 	str	q1, [sp, #384]
    1738:	3d8067e2 	str	q2, [sp, #400]
    173c:	3d806be3 	str	q3, [sp, #416]
    1740:	3d806fe4 	str	q4, [sp, #432]
    1744:	3d8073e5 	str	q5, [sp, #448]
    1748:	3d8077e6 	str	q6, [sp, #464]
    174c:	3d807be7 	str	q7, [sp, #480]
    1750:	f9409821 	ldr	x1, [x1, #304]
    1754:	a9001003 	stp	x3, x4, [x0]
    1758:	a9011805 	stp	x5, x6, [x0, #16]
    175c:	f90117e7 	str	x7, [sp, #552]
    1760:	f9400020 	ldr	x0, [x1]
    1764:	f900b7e0 	str	x0, [sp, #360]
    1768:	d2800000 	mov	x0, #0x0                   	// #0
/optee/optee_os/lib/libutee/trace_ext.c:46
    176c:	97fffb87 	bl	588 <trace_get_level>
    1770:	7100001f 	cmp	w0, #0x0
    1774:	5400040d 	b.le	17f4 <printf+0xe4>
/optee/optee_os/lib/libutee/trace_ext.c:49
    1778:	9108c3e0 	add	x0, sp, #0x230
/optee/optee_os/lib/libutee/trace_ext.c:50
    177c:	910083e3 	add	x3, sp, #0x20
/optee/optee_os/lib/libutee/trace_ext.c:49
    1780:	a90483e0 	stp	x0, x0, [sp, #72]
    1784:	9107c3e0 	add	x0, sp, #0x1f0
/optee/optee_os/lib/libutee/trace_ext.c:50
    1788:	910123e1 	add	x1, sp, #0x48
/optee/optee_os/lib/libutee/trace_ext.c:49
    178c:	f9002fe0 	str	x0, [sp, #88]
    1790:	128006e0 	mov	w0, #0xffffffc8            	// #-56
    1794:	b90063e0 	str	w0, [sp, #96]
    1798:	12800fe0 	mov	w0, #0xffffff80            	// #-128
/optee/optee_os/lib/libutee/trace_ext.c:50
    179c:	d2800402 	mov	x2, #0x20                  	// #32
    17a0:	9101a3f4 	add	x20, sp, #0x68
/optee/optee_os/lib/libutee/trace_ext.c:49
    17a4:	b90067e0 	str	w0, [sp, #100]
/optee/optee_os/lib/libutee/trace_ext.c:50
    17a8:	aa0303e0 	mov	x0, x3
    17ac:	97fffa15 	bl	0 <memcpy>
    17b0:	aa0003e3 	mov	x3, x0
    17b4:	aa1303e2 	mov	x2, x19
    17b8:	aa1403e0 	mov	x0, x20
    17bc:	d2802001 	mov	x1, #0x100                 	// #256
    17c0:	940046f4 	bl	13390 <vsnprintf>
    17c4:	2a0003f3 	mov	w19, w0
/optee/optee_os/lib/libutee/trace_ext.c:53
    17c8:	37f80060 	tbnz	w0, #31, 17d4 <printf+0xc4>
/optee/optee_os/lib/libutee/trace_ext.c:56
    17cc:	aa1403e0 	mov	x0, x20
    17d0:	97ffffc4 	bl	16e0 <trace_ext_puts>
/optee/optee_os/lib/libutee/trace_ext.c:59
    17d4:	900000c1 	adrp	x1, 19000 <_DYNAMIC>
    17d8:	f9409821 	ldr	x1, [x1, #304]
    17dc:	f940b7e0 	ldr	x0, [sp, #360]
    17e0:	f9400022 	ldr	x2, [x1]
    17e4:	eb020000 	subs	x0, x0, x2
    17e8:	d2800002 	mov	x2, #0x0                   	// #0
    17ec:	54000080 	b.eq	17fc <printf+0xec>  // b.none
    17f0:	97fffb53 	bl	53c <__stack_chk_fail>
/optee/optee_os/lib/libutee/trace_ext.c:47
    17f4:	52800013 	mov	w19, #0x0                   	// #0
    17f8:	17fffff7 	b	17d4 <printf+0xc4>
/optee/optee_os/lib/libutee/trace_ext.c:59
    17fc:	2a1303e0 	mov	w0, w19
    1800:	a9407bfd 	ldp	x29, x30, [sp]
    1804:	a94153f3 	ldp	x19, x20, [sp, #16]
    1808:	9108c3ff 	add	sp, sp, #0x230
    180c:	d65f03c0 	ret

0000000000001810 <puts>:
puts():
/optee/optee_os/lib/libutee/trace_ext.c:62
    1810:	a9be7bfd 	stp	x29, x30, [sp, #-32]!
    1814:	910003fd 	mov	x29, sp
    1818:	f9000bf3 	str	x19, [sp, #16]
    181c:	aa0003f3 	mov	x19, x0
/optee/optee_os/lib/libutee/trace_ext.c:63
    1820:	97fffb5a 	bl	588 <trace_get_level>
    1824:	7100001f 	cmp	w0, #0x0
    1828:	540000cd 	b.le	1840 <puts+0x30>
/optee/optee_os/lib/libutee/trace_ext.c:64
    182c:	aa1303e0 	mov	x0, x19
    1830:	97ffffac 	bl	16e0 <trace_ext_puts>
/optee/optee_os/lib/libutee/trace_ext.c:65
    1834:	f00000a0 	adrp	x0, 18000 <__func__.12+0x9>
    1838:	9118fc00 	add	x0, x0, #0x63f
    183c:	97ffffa9 	bl	16e0 <trace_ext_puts>
/optee/optee_os/lib/libutee/trace_ext.c:68
    1840:	52800020 	mov	w0, #0x1                   	// #1
    1844:	f9400bf3 	ldr	x19, [sp, #16]
    1848:	a8c27bfd 	ldp	x29, x30, [sp], #32
    184c:	d65f03c0 	ret

0000000000001850 <putchar>:
putchar():
/optee/optee_os/lib/libutee/trace_ext.c:71
    1850:	a9bd7bfd 	stp	x29, x30, [sp, #-48]!
    1854:	900000c1 	adrp	x1, 19000 <_DYNAMIC>
    1858:	910003fd 	mov	x29, sp
    185c:	f9409821 	ldr	x1, [x1, #304]
    1860:	f9000bf3 	str	x19, [sp, #16]
    1864:	2a0003f3 	mov	w19, w0
    1868:	f9400020 	ldr	x0, [x1]
    186c:	f90017e0 	str	x0, [sp, #40]
    1870:	d2800000 	mov	x0, #0x0                   	// #0
/optee/optee_os/lib/libutee/trace_ext.c:72
    1874:	390083f3 	strb	w19, [sp, #32]
    1878:	390087ff 	strb	wzr, [sp, #33]
/optee/optee_os/lib/libutee/trace_ext.c:74
    187c:	97fffb43 	bl	588 <trace_get_level>
    1880:	7100001f 	cmp	w0, #0x0
    1884:	5400006d 	b.le	1890 <putchar+0x40>
/optee/optee_os/lib/libutee/trace_ext.c:75
    1888:	910083e0 	add	x0, sp, #0x20
    188c:	97ffff95 	bl	16e0 <trace_ext_puts>
/optee/optee_os/lib/libutee/trace_ext.c:82
    1890:	900000c1 	adrp	x1, 19000 <_DYNAMIC>
/optee/optee_os/lib/libutee/trace_ext.c:81
    1894:	12001e60 	and	w0, w19, #0xff
/optee/optee_os/lib/libutee/trace_ext.c:82
    1898:	f9409821 	ldr	x1, [x1, #304]
    189c:	f94017e3 	ldr	x3, [sp, #40]
    18a0:	f9400022 	ldr	x2, [x1]
    18a4:	eb020063 	subs	x3, x3, x2
    18a8:	d2800002 	mov	x2, #0x0                   	// #0
    18ac:	54000040 	b.eq	18b4 <putchar+0x64>  // b.none
    18b0:	97fffb23 	bl	53c <__stack_chk_fail>
    18b4:	f9400bf3 	ldr	x19, [sp, #16]
    18b8:	a8c37bfd 	ldp	x29, x30, [sp], #48
    18bc:	d65f03c0 	ret

00000000000018c0 <copy_param>:
copy_param():
/optee/optee_os/lib/libutee/tee_api.c:43
    18c0:	2a0103e3 	mov	w3, w1
    18c4:	52800004 	mov	w4, #0x0                   	// #0
    18c8:	f8008403 	str	x3, [x0], #8
/optee/optee_os/lib/libutee/tee_api.c:45
    18cc:	1ac42425 	lsr	w5, w1, w4
    18d0:	12000ca3 	and	w3, w5, #0xf
    18d4:	71000c7f 	cmp	w3, #0x3
    18d8:	540001a0 	b.eq	190c <copy_param+0x4c>  // b.none
    18dc:	721e04bf 	tst	w5, #0xc
    18e0:	540000c1 	b.ne	18f8 <copy_param+0x38>  // b.any
    18e4:	7100047f 	cmp	w3, #0x1
    18e8:	54000120 	b.eq	190c <copy_param+0x4c>  // b.none
    18ec:	d2800003 	mov	x3, #0x0                   	// #0
    18f0:	d2800005 	mov	x5, #0x0                   	// #0
    18f4:	14000007 	b	1910 <copy_param+0x50>
    18f8:	51001463 	sub	w3, w3, #0x5
    18fc:	7100087f 	cmp	w3, #0x2
    1900:	54ffff68 	b.hi	18ec <copy_param+0x2c>  // b.pmore
/optee/optee_os/lib/libutee/tee_api.c:55
    1904:	a9400c45 	ldp	x5, x3, [x2]
/optee/optee_os/lib/libutee/tee_api.c:56
    1908:	14000002 	b	1910 <copy_param+0x50>
/optee/optee_os/lib/libutee/tee_api.c:49
    190c:	29400c45 	ldp	w5, w3, [x2]
/optee/optee_os/lib/libutee/tee_api.c:44 (discriminator 2)
    1910:	11001084 	add	w4, w4, #0x4
/optee/optee_os/lib/libutee/tee_api.c:62 (discriminator 2)
    1914:	a9000c05 	stp	x5, x3, [x0]
/optee/optee_os/lib/libutee/tee_api.c:44 (discriminator 2)
    1918:	91004042 	add	x2, x2, #0x10
    191c:	91004000 	add	x0, x0, #0x10
    1920:	7100409f 	cmp	w4, #0x10
    1924:	54fffd41 	b.ne	18cc <copy_param+0xc>  // b.any
/optee/optee_os/lib/libutee/tee_api.c:64
    1928:	d65f03c0 	ret

000000000000192c <copy_gp11_param>:
copy_gp11_param():
/optee/optee_os/lib/libutee/tee_api.c:73
    192c:	2a0103e3 	mov	w3, w1
    1930:	52800004 	mov	w4, #0x0                   	// #0
    1934:	f8008403 	str	x3, [x0], #8
/optee/optee_os/lib/libutee/tee_api.c:75
    1938:	1ac42425 	lsr	w5, w1, w4
    193c:	12000ca3 	and	w3, w5, #0xf
    1940:	71000c7f 	cmp	w3, #0x3
    1944:	540001c0 	b.eq	197c <copy_gp11_param+0x50>  // b.none
    1948:	721e04bf 	tst	w5, #0xc
    194c:	540000c1 	b.ne	1964 <copy_gp11_param+0x38>  // b.any
    1950:	7100047f 	cmp	w3, #0x1
    1954:	54000140 	b.eq	197c <copy_gp11_param+0x50>  // b.none
    1958:	d2800003 	mov	x3, #0x0                   	// #0
    195c:	d2800005 	mov	x5, #0x0                   	// #0
    1960:	14000008 	b	1980 <copy_gp11_param+0x54>
    1964:	51001463 	sub	w3, w3, #0x5
    1968:	7100087f 	cmp	w3, #0x2
    196c:	54ffff68 	b.hi	1958 <copy_gp11_param+0x2c>  // b.pmore
/optee/optee_os/lib/libutee/tee_api.c:85
    1970:	b9400843 	ldr	w3, [x2, #8]
/optee/optee_os/lib/libutee/tee_api.c:84
    1974:	f9400045 	ldr	x5, [x2]
/optee/optee_os/lib/libutee/tee_api.c:86
    1978:	14000002 	b	1980 <copy_gp11_param+0x54>
/optee/optee_os/lib/libutee/tee_api.c:79
    197c:	29400c45 	ldp	w5, w3, [x2]
/optee/optee_os/lib/libutee/tee_api.c:74 (discriminator 2)
    1980:	11001084 	add	w4, w4, #0x4
/optee/optee_os/lib/libutee/tee_api.c:92 (discriminator 2)
    1984:	a9000c05 	stp	x5, x3, [x0]
/optee/optee_os/lib/libutee/tee_api.c:74 (discriminator 2)
    1988:	91004042 	add	x2, x2, #0x10
    198c:	91004000 	add	x0, x0, #0x10
    1990:	7100409f 	cmp	w4, #0x10
    1994:	54fffd21 	b.ne	1938 <copy_gp11_param+0xc>  // b.any
/optee/optee_os/lib/libutee/tee_api.c:94
    1998:	d65f03c0 	ret

000000000000199c <check_mem_access_rights_params>:
check_mem_access_rights_params():
/optee/optee_os/lib/libutee/tee_api.c:261
    199c:	900000c3 	adrp	x3, 19000 <_DYNAMIC>
bufs_intersect():
/optee/optee_os/lib/libutee/tee_api.c:241
    19a0:	d1000447 	sub	x7, x2, #0x1
    19a4:	8b0100e7 	add	x7, x7, x1
check_mem_access_rights_params():
/optee/optee_os/lib/libutee/tee_api.c:261
    19a8:	52800005 	mov	w5, #0x0                   	// #0
    19ac:	f940c864 	ldr	x4, [x3, #400]
    19b0:	f940dc63 	ldr	x3, [x3, #440]
    19b4:	b9400089 	ldr	w9, [x4]
    19b8:	1ac52524 	lsr	w4, w9, w5
    19bc:	12000c84 	and	w4, w4, #0xf
    19c0:	7100149f 	cmp	w4, #0x5
    19c4:	54000300 	b.eq	1a24 <check_mem_access_rights_params+0x88>  // b.none
    19c8:	51001884 	sub	w4, w4, #0x6
    19cc:	7100049f 	cmp	w4, #0x1
    19d0:	540001e8 	b.hi	1a0c <check_mem_access_rights_params+0x70>  // b.pmore
    19d4:	528000c6 	mov	w6, #0x6                   	// #6
/optee/optee_os/lib/libutee/tee_api.c:268
    19d8:	f9400464 	ldr	x4, [x3, #8]
bufs_intersect():
/optee/optee_os/lib/libutee/tee_api.c:244
    19dc:	f100005f 	cmp	x2, #0x0
    19e0:	fa401884 	ccmp	x4, #0x0, #0x4, ne  // ne = any
    19e4:	54000140 	b.eq	1a0c <check_mem_access_rights_params+0x70>  // b.none
/optee/optee_os/lib/libutee/tee_api.c:240
    19e8:	f9400068 	ldr	x8, [x3]
/optee/optee_os/lib/libutee/tee_api.c:242
    19ec:	d1000484 	sub	x4, x4, #0x1
    19f0:	8b080084 	add	x4, x4, x8
/optee/optee_os/lib/libutee/tee_api.c:247
    19f4:	eb07011f 	cmp	x8, x7
    19f8:	fa449022 	ccmp	x1, x4, #0x2, ls  // ls = plast
    19fc:	54000088 	b.hi	1a0c <check_mem_access_rights_params+0x70>  // b.pmore
check_mem_access_rights_params():
/optee/optee_os/lib/libutee/tee_api.c:267
    1a00:	320000c6 	orr	w6, w6, #0x1
/optee/optee_os/lib/libutee/tee_api.c:271
    1a04:	6a26001f 	bics	wzr, w0, w6
    1a08:	54000121 	b.ne	1a2c <check_mem_access_rights_params+0x90>  // b.any
/optee/optee_os/lib/libutee/tee_api.c:258 (discriminator 2)
    1a0c:	110010a5 	add	w5, w5, #0x4
    1a10:	91004063 	add	x3, x3, #0x10
    1a14:	710040bf 	cmp	w5, #0x10
    1a18:	54fffd01 	b.ne	19b8 <check_mem_access_rights_params+0x1c>  // b.any
/optee/optee_os/lib/libutee/tee_api.c:280
    1a1c:	52800000 	mov	w0, #0x0                   	// #0
/optee/optee_os/lib/libutee/tee_api.c:281
    1a20:	d65f03c0 	ret
/optee/optee_os/lib/libutee/tee_api.c:259
    1a24:	52800086 	mov	w6, #0x4                   	// #4
    1a28:	17ffffec 	b	19d8 <check_mem_access_rights_params+0x3c>
/optee/optee_os/lib/libutee/tee_api.c:272
    1a2c:	129fffc0 	mov	w0, #0xffff0001            	// #-65535
    1a30:	17fffffc 	b	1a20 <check_mem_access_rights_params+0x84>

0000000000001a34 <buf_overlaps_no_share_heap>:
buf_overlaps_no_share_heap():
/optee/optee_os/lib/libutee/tee_api.c:284
    1a34:	aa0003e3 	mov	x3, x0
/optee/optee_os/lib/libutee/tee_api.c:285
    1a38:	900000c0 	adrp	x0, 19000 <_DYNAMIC>
    1a3c:	f940d400 	ldr	x0, [x0, #424]
    1a40:	f9400000 	ldr	x0, [x0]
/optee/optee_os/lib/libutee/tee_api.c:287
    1a44:	b4000140 	cbz	x0, 1a6c <buf_overlaps_no_share_heap+0x38>
/optee/optee_os/lib/libutee/tee_api.c:284 (discriminator 1)
    1a48:	a9bf7bfd 	stp	x29, x30, [sp, #-16]!
    1a4c:	aa0103e2 	mov	x2, x1
/optee/optee_os/lib/libutee/tee_api.c:287 (discriminator 1)
    1a50:	aa0303e1 	mov	x1, x3
/optee/optee_os/lib/libutee/tee_api.c:284 (discriminator 1)
    1a54:	910003fd 	mov	x29, sp
/optee/optee_os/lib/libutee/tee_api.c:287 (discriminator 1)
    1a58:	9400457f 	bl	13054 <raw_malloc_buffer_overlaps_heap>
    1a5c:	12001c00 	and	w0, w0, #0xff
/optee/optee_os/lib/libutee/tee_api.c:288 (discriminator 1)
    1a60:	12000000 	and	w0, w0, #0x1
    1a64:	a8c17bfd 	ldp	x29, x30, [sp], #16
    1a68:	d65f03c0 	ret
/optee/optee_os/lib/libutee/tee_api.c:287
    1a6c:	52800000 	mov	w0, #0x0                   	// #0
/optee/optee_os/lib/libutee/tee_api.c:288
    1a70:	12000000 	and	w0, w0, #0x1
    1a74:	d65f03c0 	ret

0000000000001a78 <check_invoke_param>:
check_invoke_param():
/optee/optee_os/lib/libutee/tee_api.c:291
    1a78:	a9bc7bfd 	stp	x29, x30, [sp, #-64]!
    1a7c:	910003fd 	mov	x29, sp
    1a80:	a90153f3 	stp	x19, x20, [sp, #16]
    1a84:	aa0103f3 	mov	x19, x1
    1a88:	52800014 	mov	w20, #0x0                   	// #0
    1a8c:	a9025bf5 	stp	x21, x22, [sp, #32]
    1a90:	2a0003f5 	mov	w21, w0
    1a94:	f9001bf7 	str	x23, [sp, #48]
/optee/optee_os/lib/libutee/tee_api.c:299
    1a98:	1ad426a1 	lsr	w1, w21, w20
    1a9c:	12000c21 	and	w1, w1, #0xf
    1aa0:	7100143f 	cmp	w1, #0x5
    1aa4:	540003a0 	b.eq	1b18 <check_invoke_param+0xa0>  // b.none
    1aa8:	51001821 	sub	w1, w1, #0x6
    1aac:	7100043f 	cmp	w1, #0x1
    1ab0:	54000228 	b.hi	1af4 <check_invoke_param+0x7c>  // b.pmore
    1ab4:	528000c0 	mov	w0, #0x6                   	// #6
/optee/optee_os/lib/libutee/tee_api.c:297
    1ab8:	a9405e76 	ldp	x22, x23, [x19]
/optee/optee_os/lib/libutee/tee_api.c:306
    1abc:	32000000 	orr	w0, w0, #0x1
    1ac0:	aa1703e2 	mov	x2, x23
    1ac4:	aa1603e1 	mov	x1, x22
    1ac8:	97ffffb5 	bl	199c <check_mem_access_rights_params>
    1acc:	34000060 	cbz	w0, 1ad8 <check_invoke_param+0x60>
/optee/optee_os/lib/libutee/tee_api.c:307
    1ad0:	52800000 	mov	w0, #0x0                   	// #0
    1ad4:	94001c3c 	bl	8bc4 <TEE_Panic>
/optee/optee_os/lib/libutee/tee_api.c:308
    1ad8:	aa1703e1 	mov	x1, x23
    1adc:	aa1603e0 	mov	x0, x22
    1ae0:	97ffffd5 	bl	1a34 <buf_overlaps_no_share_heap>
    1ae4:	72001c1f 	tst	w0, #0xff
    1ae8:	54000060 	b.eq	1af4 <check_invoke_param+0x7c>  // b.none
/optee/optee_os/lib/libutee/tee_api.c:309
    1aec:	52800000 	mov	w0, #0x0                   	// #0
    1af0:	94001c35 	bl	8bc4 <TEE_Panic>
/optee/optee_os/lib/libutee/tee_api.c:294 (discriminator 2)
    1af4:	11001294 	add	w20, w20, #0x4
    1af8:	91004273 	add	x19, x19, #0x10
    1afc:	7100429f 	cmp	w20, #0x10
    1b00:	54fffcc1 	b.ne	1a98 <check_invoke_param+0x20>  // b.any
/optee/optee_os/lib/libutee/tee_api.c:315
    1b04:	a94153f3 	ldp	x19, x20, [sp, #16]
    1b08:	a9425bf5 	ldp	x21, x22, [sp, #32]
    1b0c:	f9401bf7 	ldr	x23, [sp, #48]
    1b10:	a8c47bfd 	ldp	x29, x30, [sp], #64
    1b14:	d65f03c0 	ret
/optee/optee_os/lib/libutee/tee_api.c:295
    1b18:	52800080 	mov	w0, #0x4                   	// #4
    1b1c:	17ffffe7 	b	1ab8 <check_invoke_param+0x40>

0000000000001b20 <update_out_param>:
update_out_param():
/optee/optee_os/lib/libutee/tee_api.c:180
    1b20:	a9bc7bfd 	stp	x29, x30, [sp, #-64]!
    1b24:	910003fd 	mov	x29, sp
    1b28:	a90153f3 	stp	x19, x20, [sp, #16]
/optee/optee_os/lib/libutee/tee_api.c:182
    1b2c:	aa0203f4 	mov	x20, x2
    1b30:	aa0003f3 	mov	x19, x0
/optee/optee_os/lib/libutee/tee_api.c:180
    1b34:	a90363f7 	stp	x23, x24, [sp, #48]
    1b38:	aa0103f8 	mov	x24, x1
/optee/optee_os/lib/libutee/tee_api.c:182
    1b3c:	f8408697 	ldr	x23, [x20], #8
/optee/optee_os/lib/libutee/tee_api.c:180
    1b40:	a9025bf5 	stp	x21, x22, [sp, #32]
/optee/optee_os/lib/libutee/tee_api.c:184
    1b44:	d2800015 	mov	x21, #0x0                   	// #0
/optee/optee_os/lib/libutee/tee_api.c:188
    1b48:	531e76a0 	lsl	w0, w21, #2
/optee/optee_os/lib/libutee/tee_api.c:186
    1b4c:	a9405a82 	ldp	x2, x22, [x20]
/optee/optee_os/lib/libutee/tee_api.c:188
    1b50:	1ac026e0 	lsr	w0, w23, w0
    1b54:	12000c01 	and	w1, w0, #0xf
    1b58:	721e041f 	tst	w0, #0xc
    1b5c:	540000a1 	b.ne	1b70 <update_out_param+0x50>  // b.any
    1b60:	721f081f 	tst	w0, #0xe
    1b64:	540000c0 	b.eq	1b7c <update_out_param+0x5c>  // b.none
/optee/optee_os/lib/libutee/tee_api.c:192
    1b68:	29005a62 	stp	w2, w22, [x19]
/optee/optee_os/lib/libutee/tee_api.c:193
    1b6c:	14000004 	b	1b7c <update_out_param+0x5c>
/optee/optee_os/lib/libutee/tee_api.c:188
    1b70:	51001820 	sub	w0, w1, #0x6
    1b74:	7100041f 	cmp	w0, #0x1
    1b78:	54000169 	b.ls	1ba4 <update_out_param+0x84>  // b.plast
/optee/optee_os/lib/libutee/tee_api.c:184 (discriminator 2)
    1b7c:	910006b5 	add	x21, x21, #0x1
    1b80:	91004294 	add	x20, x20, #0x10
    1b84:	91004273 	add	x19, x19, #0x10
    1b88:	f10012bf 	cmp	x21, #0x4
    1b8c:	54fffde1 	b.ne	1b48 <update_out_param+0x28>  // b.any
/optee/optee_os/lib/libutee/tee_api.c:205
    1b90:	a94153f3 	ldp	x19, x20, [sp, #16]
    1b94:	a9425bf5 	ldp	x21, x22, [sp, #32]
    1b98:	a94363f7 	ldp	x23, x24, [sp, #48]
    1b9c:	a8c47bfd 	ldp	x29, x30, [sp], #64
    1ba0:	d65f03c0 	ret
/optee/optee_os/lib/libutee/tee_api.c:196
    1ba4:	f8757b01 	ldr	x1, [x24, x21, lsl #3]
    1ba8:	b40000a1 	cbz	x1, 1bbc <update_out_param+0x9c>
/optee/optee_os/lib/libutee/tee_api.c:198
    1bac:	a9400a60 	ldp	x0, x2, [x19]
    1bb0:	eb16005f 	cmp	x2, x22
/optee/optee_os/lib/libutee/tee_api.c:197
    1bb4:	9a969042 	csel	x2, x2, x22, ls  // ls = plast
    1bb8:	97fff912 	bl	0 <memcpy>
/optee/optee_os/lib/libutee/tee_api.c:199
    1bbc:	f9000676 	str	x22, [x19, #8]
/optee/optee_os/lib/libutee/tee_api.c:200
    1bc0:	17ffffef 	b	1b7c <update_out_param+0x5c>

0000000000001bc4 <update_out_gp11_param>:
update_out_gp11_param():
/optee/optee_os/lib/libutee/tee_api.c:210
    1bc4:	a9bc7bfd 	stp	x29, x30, [sp, #-64]!
    1bc8:	910003fd 	mov	x29, sp
    1bcc:	a90153f3 	stp	x19, x20, [sp, #16]
/optee/optee_os/lib/libutee/tee_api.c:212
    1bd0:	aa0203f4 	mov	x20, x2
    1bd4:	aa0003f3 	mov	x19, x0
/optee/optee_os/lib/libutee/tee_api.c:210
    1bd8:	a90363f7 	stp	x23, x24, [sp, #48]
    1bdc:	aa0103f8 	mov	x24, x1
/optee/optee_os/lib/libutee/tee_api.c:212
    1be0:	f8408697 	ldr	x23, [x20], #8
/optee/optee_os/lib/libutee/tee_api.c:210
    1be4:	a9025bf5 	stp	x21, x22, [sp, #32]
/optee/optee_os/lib/libutee/tee_api.c:214
    1be8:	d2800015 	mov	x21, #0x0                   	// #0
/optee/optee_os/lib/libutee/tee_api.c:218
    1bec:	531e76a0 	lsl	w0, w21, #2
/optee/optee_os/lib/libutee/tee_api.c:216
    1bf0:	a9405a82 	ldp	x2, x22, [x20]
/optee/optee_os/lib/libutee/tee_api.c:218
    1bf4:	1ac026e0 	lsr	w0, w23, w0
    1bf8:	12000c01 	and	w1, w0, #0xf
    1bfc:	721e041f 	tst	w0, #0xc
    1c00:	540000a1 	b.ne	1c14 <update_out_gp11_param+0x50>  // b.any
    1c04:	721f081f 	tst	w0, #0xe
    1c08:	540000c0 	b.eq	1c20 <update_out_gp11_param+0x5c>  // b.none
/optee/optee_os/lib/libutee/tee_api.c:222
    1c0c:	29005a62 	stp	w2, w22, [x19]
/optee/optee_os/lib/libutee/tee_api.c:223
    1c10:	14000004 	b	1c20 <update_out_gp11_param+0x5c>
/optee/optee_os/lib/libutee/tee_api.c:218
    1c14:	51001820 	sub	w0, w1, #0x6
    1c18:	7100041f 	cmp	w0, #0x1
    1c1c:	54000169 	b.ls	1c48 <update_out_gp11_param+0x84>  // b.plast
/optee/optee_os/lib/libutee/tee_api.c:214 (discriminator 2)
    1c20:	910006b5 	add	x21, x21, #0x1
    1c24:	91004294 	add	x20, x20, #0x10
    1c28:	91004273 	add	x19, x19, #0x10
    1c2c:	f10012bf 	cmp	x21, #0x4
    1c30:	54fffde1 	b.ne	1bec <update_out_gp11_param+0x28>  // b.any
/optee/optee_os/lib/libutee/tee_api.c:235
    1c34:	a94153f3 	ldp	x19, x20, [sp, #16]
    1c38:	a9425bf5 	ldp	x21, x22, [sp, #32]
    1c3c:	a94363f7 	ldp	x23, x24, [sp, #48]
    1c40:	a8c47bfd 	ldp	x29, x30, [sp], #64
    1c44:	d65f03c0 	ret
/optee/optee_os/lib/libutee/tee_api.c:226
    1c48:	f8757b01 	ldr	x1, [x24, x21, lsl #3]
    1c4c:	b40000c1 	cbz	x1, 1c64 <update_out_gp11_param+0xa0>
/optee/optee_os/lib/libutee/tee_api.c:228
    1c50:	b9400a62 	ldr	w2, [x19, #8]
/optee/optee_os/lib/libutee/tee_api.c:227
    1c54:	f9400260 	ldr	x0, [x19]
/optee/optee_os/lib/libutee/tee_api.c:228
    1c58:	eb16005f 	cmp	x2, x22
/optee/optee_os/lib/libutee/tee_api.c:227
    1c5c:	9a969042 	csel	x2, x2, x22, ls  // ls = plast
    1c60:	97fff8e8 	bl	0 <memcpy>
/optee/optee_os/lib/libutee/tee_api.c:229
    1c64:	b9000a76 	str	w22, [x19, #8]
/optee/optee_os/lib/libutee/tee_api.c:230
    1c68:	17ffffee 	b	1c20 <update_out_gp11_param+0x5c>

0000000000001c6c <TEE_CloseTASession>:
TEE_CloseTASession():
/optee/optee_os/lib/libutee/tee_api.c:415
    1c6c:	b4000120 	cbz	x0, 1c90 <TEE_CloseTASession+0x24>
/optee/optee_os/lib/libutee/tee_api.c:414
    1c70:	a9bf7bfd 	stp	x29, x30, [sp, #-16]!
    1c74:	910003fd 	mov	x29, sp
/optee/optee_os/lib/libutee/tee_api.c:416
    1c78:	94001edf 	bl	97f4 <_utee_close_ta_session>
/optee/optee_os/lib/libutee/tee_api.c:418
    1c7c:	34000060 	cbz	w0, 1c88 <TEE_CloseTASession+0x1c>
/optee/optee_os/lib/libutee/tee_api.c:421
    1c80:	a8c17bfd 	ldp	x29, x30, [sp], #16
/optee/optee_os/lib/libutee/tee_api.c:419
    1c84:	14001bd0 	b	8bc4 <TEE_Panic>
/optee/optee_os/lib/libutee/tee_api.c:421
    1c88:	a8c17bfd 	ldp	x29, x30, [sp], #16
    1c8c:	d65f03c0 	ret
    1c90:	d65f03c0 	ret

0000000000001c94 <TEE_GetCancellationFlag>:
TEE_GetCancellationFlag():
/optee/optee_os/lib/libutee/tee_api.c:530
    1c94:	a9be7bfd 	stp	x29, x30, [sp, #-32]!
    1c98:	900000c1 	adrp	x1, 19000 <_DYNAMIC>
    1c9c:	910003fd 	mov	x29, sp
    1ca0:	f9409821 	ldr	x1, [x1, #304]
    1ca4:	f9400020 	ldr	x0, [x1]
    1ca8:	f9000fe0 	str	x0, [sp, #24]
    1cac:	d2800000 	mov	x0, #0x0                   	// #0
/optee/optee_os/lib/libutee/tee_api.c:532
    1cb0:	910053e0 	add	x0, sp, #0x14
    1cb4:	94001ed6 	bl	980c <_utee_get_cancellation_flag>
/optee/optee_os/lib/libutee/tee_api.c:534
    1cb8:	34000040 	cbz	w0, 1cc0 <TEE_GetCancellationFlag+0x2c>
/optee/optee_os/lib/libutee/tee_api.c:535
    1cbc:	b90017ff 	str	wzr, [sp, #20]
/optee/optee_os/lib/libutee/tee_api.c:537
    1cc0:	900000c1 	adrp	x1, 19000 <_DYNAMIC>
/optee/optee_os/lib/libutee/tee_api.c:536
    1cc4:	b94017e0 	ldr	w0, [sp, #20]
/optee/optee_os/lib/libutee/tee_api.c:537
    1cc8:	f9409821 	ldr	x1, [x1, #304]
/optee/optee_os/lib/libutee/tee_api.c:536
    1ccc:	7100001f 	cmp	w0, #0x0
    1cd0:	1a9f07e0 	cset	w0, ne  // ne = any
/optee/optee_os/lib/libutee/tee_api.c:537
    1cd4:	f9400fe3 	ldr	x3, [sp, #24]
    1cd8:	f9400022 	ldr	x2, [x1]
    1cdc:	eb020063 	subs	x3, x3, x2
    1ce0:	d2800002 	mov	x2, #0x0                   	// #0
    1ce4:	54000040 	b.eq	1cec <TEE_GetCancellationFlag+0x58>  // b.none
    1ce8:	97fffa15 	bl	53c <__stack_chk_fail>
    1cec:	a8c27bfd 	ldp	x29, x30, [sp], #32
    1cf0:	d65f03c0 	ret

0000000000001cf4 <TEE_UnmaskCancellation>:
TEE_UnmaskCancellation():
/optee/optee_os/lib/libutee/tee_api.c:540
    1cf4:	a9be7bfd 	stp	x29, x30, [sp, #-32]!
    1cf8:	900000c1 	adrp	x1, 19000 <_DYNAMIC>
    1cfc:	910003fd 	mov	x29, sp
    1d00:	f9409821 	ldr	x1, [x1, #304]
    1d04:	f9400020 	ldr	x0, [x1]
    1d08:	f9000fe0 	str	x0, [sp, #24]
    1d0c:	d2800000 	mov	x0, #0x0                   	// #0
/optee/optee_os/lib/libutee/tee_api.c:542
    1d10:	910053e0 	add	x0, sp, #0x14
    1d14:	94001ec4 	bl	9824 <_utee_unmask_cancellation>
/optee/optee_os/lib/libutee/tee_api.c:544
    1d18:	34000040 	cbz	w0, 1d20 <TEE_UnmaskCancellation+0x2c>
/optee/optee_os/lib/libutee/tee_api.c:545
    1d1c:	94001baa 	bl	8bc4 <TEE_Panic>
/optee/optee_os/lib/libutee/tee_api.c:547
    1d20:	900000c1 	adrp	x1, 19000 <_DYNAMIC>
/optee/optee_os/lib/libutee/tee_api.c:546
    1d24:	b94017e0 	ldr	w0, [sp, #20]
/optee/optee_os/lib/libutee/tee_api.c:547
    1d28:	f9409821 	ldr	x1, [x1, #304]
/optee/optee_os/lib/libutee/tee_api.c:546
    1d2c:	7100001f 	cmp	w0, #0x0
    1d30:	1a9f07e0 	cset	w0, ne  // ne = any
/optee/optee_os/lib/libutee/tee_api.c:547
    1d34:	f9400fe3 	ldr	x3, [sp, #24]
    1d38:	f9400022 	ldr	x2, [x1]
    1d3c:	eb020063 	subs	x3, x3, x2
    1d40:	d2800002 	mov	x2, #0x0                   	// #0
    1d44:	54000040 	b.eq	1d4c <TEE_UnmaskCancellation+0x58>  // b.none
    1d48:	97fff9fd 	bl	53c <__stack_chk_fail>
    1d4c:	a8c27bfd 	ldp	x29, x30, [sp], #32
    1d50:	d65f03c0 	ret

0000000000001d54 <TEE_MaskCancellation>:
TEE_MaskCancellation():
/optee/optee_os/lib/libutee/tee_api.c:550
    1d54:	a9be7bfd 	stp	x29, x30, [sp, #-32]!
    1d58:	900000c1 	adrp	x1, 19000 <_DYNAMIC>
    1d5c:	910003fd 	mov	x29, sp
    1d60:	f9409821 	ldr	x1, [x1, #304]
    1d64:	f9400020 	ldr	x0, [x1]
    1d68:	f9000fe0 	str	x0, [sp, #24]
    1d6c:	d2800000 	mov	x0, #0x0                   	// #0
/optee/optee_os/lib/libutee/tee_api.c:552
    1d70:	910053e0 	add	x0, sp, #0x14
    1d74:	94001eaf 	bl	9830 <_utee_mask_cancellation>
/optee/optee_os/lib/libutee/tee_api.c:554
    1d78:	34000040 	cbz	w0, 1d80 <TEE_MaskCancellation+0x2c>
/optee/optee_os/lib/libutee/tee_api.c:555
    1d7c:	94001b92 	bl	8bc4 <TEE_Panic>
/optee/optee_os/lib/libutee/tee_api.c:557
    1d80:	900000c1 	adrp	x1, 19000 <_DYNAMIC>
/optee/optee_os/lib/libutee/tee_api.c:556
    1d84:	b94017e0 	ldr	w0, [sp, #20]
/optee/optee_os/lib/libutee/tee_api.c:557
    1d88:	f9409821 	ldr	x1, [x1, #304]
/optee/optee_os/lib/libutee/tee_api.c:556
    1d8c:	7100001f 	cmp	w0, #0x0
    1d90:	1a9f07e0 	cset	w0, ne  // ne = any
/optee/optee_os/lib/libutee/tee_api.c:557
    1d94:	f9400fe3 	ldr	x3, [sp, #24]
    1d98:	f9400022 	ldr	x2, [x1]
    1d9c:	eb020063 	subs	x3, x3, x2
    1da0:	d2800002 	mov	x2, #0x0                   	// #0
    1da4:	54000040 	b.eq	1dac <TEE_MaskCancellation+0x58>  // b.none
    1da8:	97fff9e5 	bl	53c <__stack_chk_fail>
    1dac:	a8c27bfd 	ldp	x29, x30, [sp], #32
    1db0:	d65f03c0 	ret

0000000000001db4 <TEE_CheckMemoryAccessRights>:
TEE_CheckMemoryAccessRights():
/optee/optee_os/lib/libutee/tee_api.c:566
    1db4:	b5000102 	cbnz	x2, 1dd4 <TEE_CheckMemoryAccessRights+0x20>
/optee/optee_os/lib/libutee/tee_api.c:567
    1db8:	52800000 	mov	w0, #0x0                   	// #0
/optee/optee_os/lib/libutee/tee_api.c:592
    1dbc:	d65f03c0 	ret
/optee/optee_os/lib/libutee/tee_api.c:567
    1dc0:	52800000 	mov	w0, #0x0                   	// #0
/optee/optee_os/lib/libutee/tee_api.c:592
    1dc4:	a94153f3 	ldp	x19, x20, [sp, #16]
    1dc8:	f94013f5 	ldr	x21, [sp, #32]
    1dcc:	a8c37bfd 	ldp	x29, x30, [sp], #48
    1dd0:	d65f03c0 	ret
/optee/optee_os/lib/libutee/tee_api.c:563
    1dd4:	a9bd7bfd 	stp	x29, x30, [sp, #-48]!
    1dd8:	910003fd 	mov	x29, sp
    1ddc:	a90153f3 	stp	x19, x20, [sp, #16]
    1de0:	aa0103f4 	mov	x20, x1
    1de4:	aa0203f3 	mov	x19, x2
    1de8:	f90013f5 	str	x21, [sp, #32]
    1dec:	2a0003f5 	mov	w21, w0
/optee/optee_os/lib/libutee/tee_api.c:573
    1df0:	94001e8a 	bl	9818 <_utee_check_access_rights>
    1df4:	35000200 	cbnz	w0, 1e34 <TEE_CheckMemoryAccessRights+0x80>
/optee/optee_os/lib/libutee/tee_api.c:584
    1df8:	aa1303e2 	mov	x2, x19
    1dfc:	aa1403e1 	mov	x1, x20
    1e00:	12000aa0 	and	w0, w21, #0x7
    1e04:	97fffee6 	bl	199c <check_mem_access_rights_params>
    1e08:	35000160 	cbnz	w0, 1e34 <TEE_CheckMemoryAccessRights+0x80>
/optee/optee_os/lib/libutee/tee_api.c:587
    1e0c:	aa1303e1 	mov	x1, x19
    1e10:	aa1403e0 	mov	x0, x20
    1e14:	94004524 	bl	132a4 <malloc_buffer_overlaps_heap>
    1e18:	72001c1f 	tst	w0, #0xff
    1e1c:	54fffd20 	b.eq	1dc0 <TEE_CheckMemoryAccessRights+0xc>  // b.none
/optee/optee_os/lib/libutee/tee_api.c:588
    1e20:	aa1303e1 	mov	x1, x19
    1e24:	aa1403e0 	mov	x0, x20
    1e28:	94004519 	bl	1328c <malloc_buffer_is_within_alloced>
/optee/optee_os/lib/libutee/tee_api.c:587
    1e2c:	72001c1f 	tst	w0, #0xff
    1e30:	54fffc81 	b.ne	1dc0 <TEE_CheckMemoryAccessRights+0xc>  // b.any
/optee/optee_os/lib/libutee/tee_api.c:589
    1e34:	129fffc0 	mov	w0, #0xffff0001            	// #-65535
    1e38:	17ffffe3 	b	1dc4 <TEE_CheckMemoryAccessRights+0x10>

0000000000001e3c <map_tmp_param>:
map_tmp_param():
/optee/optee_os/lib/libutee/tee_api.c:98
    1e3c:	a9b87bfd 	stp	x29, x30, [sp, #-128]!
    1e40:	900000c4 	adrp	x4, 19000 <_DYNAMIC>
    1e44:	910003fd 	mov	x29, sp
    1e48:	f9409884 	ldr	x4, [x4, #304]
    1e4c:	a90153f3 	stp	x19, x20, [sp, #16]
/optee/optee_os/lib/libutee/tee_api.c:116
    1e50:	d2800013 	mov	x19, #0x0                   	// #0
/optee/optee_os/lib/libutee/tee_api.c:98
    1e54:	a9025bf5 	stp	x21, x22, [sp, #32]
    1e58:	aa0203f6 	mov	x22, x2
    1e5c:	aa0303f5 	mov	x21, x3
    1e60:	a90363f7 	stp	x23, x24, [sp, #48]
    1e64:	aa0103f7 	mov	x23, x1
/optee/optee_os/lib/libutee/tee_api.c:135
    1e68:	52800023 	mov	w3, #0x1                   	// #1
/optee/optee_os/lib/libutee/tee_api.c:98
    1e6c:	a9046bf9 	stp	x25, x26, [sp, #64]
    1e70:	aa0003f9 	mov	x25, x0
    1e74:	91002338 	add	x24, x25, #0x8
    1e78:	a90573fb 	stp	x27, x28, [sp, #80]
/optee/optee_os/lib/libutee/tee_api.c:115
    1e7c:	aa1803fb 	mov	x27, x24
/optee/optee_os/lib/libutee/tee_api.c:135
    1e80:	9101c3fc 	add	x28, sp, #0x70
/optee/optee_os/lib/libutee/tee_api.c:98
    1e84:	f9400080 	ldr	x0, [x4]
    1e88:	f9003fe0 	str	x0, [sp, #120]
    1e8c:	d2800000 	mov	x0, #0x0                   	// #0
/optee/optee_os/lib/libutee/tee_api.c:114
    1e90:	f900003f 	str	xzr, [x1]
/optee/optee_os/lib/libutee/tee_api.c:101
    1e94:	d280001a 	mov	x26, #0x0                   	// #0
/optee/optee_os/lib/libutee/tee_api.c:115
    1e98:	f900005f 	str	xzr, [x2]
/optee/optee_os/lib/libutee/tee_api.c:103
    1e9c:	b90073ff 	str	wzr, [sp, #112]
/optee/optee_os/lib/libutee/tee_api.c:118
    1ea0:	f9400321 	ldr	x1, [x25]
    1ea4:	531e7660 	lsl	w0, w19, #2
/optee/optee_os/lib/libutee/tee_api.c:117
    1ea8:	f8337abf 	str	xzr, [x21, x19, lsl #3]
/optee/optee_os/lib/libutee/tee_api.c:118
    1eac:	1ac02421 	lsr	w1, w1, w0
    1eb0:	12000c21 	and	w1, w1, #0xf
    1eb4:	51001421 	sub	w1, w1, #0x5
    1eb8:	7100083f 	cmp	w1, #0x2
    1ebc:	540001e8 	b.hi	1ef8 <map_tmp_param+0xbc>  // b.pmore
/optee/optee_os/lib/libutee/tee_api.c:123
    1ec0:	a9405361 	ldp	x1, x20, [x27]
/optee/optee_os/lib/libutee/tee_api.c:133
    1ec4:	f100003f 	cmp	x1, #0x0
    1ec8:	fa401a84 	ccmp	x20, #0x0, #0x4, ne  // ne = any
    1ecc:	54000160 	b.eq	1ef8 <map_tmp_param+0xbc>  // b.none
/optee/optee_os/lib/libutee/tee_api.c:134 (discriminator 1)
    1ed0:	aa1403e2 	mov	x2, x20
    1ed4:	52800020 	mov	w0, #0x1                   	// #1
    1ed8:	b9006fe3 	str	w3, [sp, #108]
    1edc:	97ffffb6 	bl	1db4 <TEE_CheckMemoryAccessRights>
/optee/optee_os/lib/libutee/tee_api.c:133 (discriminator 1)
    1ee0:	b9406fe3 	ldr	w3, [sp, #108]
    1ee4:	350000a0 	cbnz	w0, 1ef8 <map_tmp_param+0xbc>
/optee/optee_os/lib/libutee/tee_api.c:136
    1ee8:	91003e94 	add	x20, x20, #0xf
/optee/optee_os/lib/libutee/tee_api.c:135
    1eec:	383c6a63 	strb	w3, [x19, x28]
/optee/optee_os/lib/libutee/tee_api.c:136
    1ef0:	927cee94 	and	x20, x20, #0xfffffffffffffff0
    1ef4:	8b14035a 	add	x26, x26, x20
/optee/optee_os/lib/libutee/tee_api.c:116 (discriminator 2)
    1ef8:	91000673 	add	x19, x19, #0x1
    1efc:	9100437b 	add	x27, x27, #0x10
    1f00:	f100127f 	cmp	x19, #0x4
    1f04:	54fffce1 	b.ne	1ea0 <map_tmp_param+0x64>  // b.any
/optee/optee_os/lib/libutee/tee_api.c:144
    1f08:	b400053a 	cbz	x26, 1fac <map_tmp_param+0x170>
/optee/optee_os/lib/libutee/tee_api.c:145
    1f0c:	2a1303e1 	mov	w1, w19
    1f10:	aa1a03e0 	mov	x0, x26
    1f14:	94001bc5 	bl	8e28 <tee_map_zi>
/optee/optee_os/lib/libutee/tee_api.c:146
    1f18:	b40004e0 	cbz	x0, 1fb4 <map_tmp_param+0x178>
/optee/optee_os/lib/libutee/tee_api.c:148
    1f1c:	f90002e0 	str	x0, [x23]
/optee/optee_os/lib/libutee/tee_api.c:149
    1f20:	f90002da 	str	x26, [x22]
/optee/optee_os/lib/libutee/tee_api.c:157
    1f24:	9101c3f6 	add	x22, sp, #0x70
/optee/optee_os/lib/libutee/tee_api.c:100
    1f28:	d2800013 	mov	x19, #0x0                   	// #0
/optee/optee_os/lib/libutee/tee_api.c:153
    1f2c:	f9400323 	ldr	x3, [x25]
    1f30:	531e7661 	lsl	w1, w19, #2
    1f34:	1ac12463 	lsr	w3, w3, w1
    1f38:	12000c63 	and	w3, w3, #0xf
    1f3c:	51001461 	sub	w1, w3, #0x5
    1f40:	7100083f 	cmp	w1, #0x2
    1f44:	540001a8 	b.hi	1f78 <map_tmp_param+0x13c>  // b.pmore
/optee/optee_os/lib/libutee/tee_api.c:157
    1f48:	38766a61 	ldrb	w1, [x19, x22]
    1f4c:	34000161 	cbz	w1, 1f78 <map_tmp_param+0x13c>
/optee/optee_os/lib/libutee/tee_api.c:159
    1f50:	a9400b01 	ldp	x1, x2, [x24]
/optee/optee_os/lib/libutee/tee_api.c:161
    1f54:	f8337aa0 	str	x0, [x21, x19, lsl #3]
/optee/optee_os/lib/libutee/tee_api.c:163
    1f58:	f9000300 	str	x0, [x24]
/optee/optee_os/lib/libutee/tee_api.c:162
    1f5c:	91003c54 	add	x20, x2, #0xf
    1f60:	927cee94 	and	x20, x20, #0xfffffffffffffff0
    1f64:	8b140014 	add	x20, x0, x20
/optee/optee_os/lib/libutee/tee_api.c:164
    1f68:	7100187f 	cmp	w3, #0x6
    1f6c:	54000040 	b.eq	1f74 <map_tmp_param+0x138>  // b.none
/optee/optee_os/lib/libutee/tee_api.c:166
    1f70:	97fff824 	bl	0 <memcpy>
/optee/optee_os/lib/libutee/tee_api.c:162
    1f74:	aa1403e0 	mov	x0, x20
/optee/optee_os/lib/libutee/tee_api.c:152 (discriminator 2)
    1f78:	91000673 	add	x19, x19, #0x1
    1f7c:	91004318 	add	x24, x24, #0x10
    1f80:	f100127f 	cmp	x19, #0x4
    1f84:	54fffd41 	b.ne	1f2c <map_tmp_param+0xf0>  // b.any
/optee/optee_os/lib/libutee/tee_api.c:173
    1f88:	52800000 	mov	w0, #0x0                   	// #0
/optee/optee_os/lib/libutee/tee_api.c:175
    1f8c:	900000c4 	adrp	x4, 19000 <_DYNAMIC>
    1f90:	f9409884 	ldr	x4, [x4, #304]
    1f94:	f9403fe1 	ldr	x1, [sp, #120]
    1f98:	f9400082 	ldr	x2, [x4]
    1f9c:	eb020021 	subs	x1, x1, x2
    1fa0:	d2800002 	mov	x2, #0x0                   	// #0
    1fa4:	540000c0 	b.eq	1fbc <map_tmp_param+0x180>  // b.none
    1fa8:	97fff965 	bl	53c <__stack_chk_fail>
/optee/optee_os/lib/libutee/tee_api.c:100
    1fac:	d2800000 	mov	x0, #0x0                   	// #0
    1fb0:	17ffffdd 	b	1f24 <map_tmp_param+0xe8>
/optee/optee_os/lib/libutee/tee_api.c:147
    1fb4:	129ffe60 	mov	w0, #0xffff000c            	// #-65524
    1fb8:	17fffff5 	b	1f8c <map_tmp_param+0x150>
/optee/optee_os/lib/libutee/tee_api.c:175
    1fbc:	a94153f3 	ldp	x19, x20, [sp, #16]
    1fc0:	a9425bf5 	ldp	x21, x22, [sp, #32]
    1fc4:	a94363f7 	ldp	x23, x24, [sp, #48]
    1fc8:	a9446bf9 	ldp	x25, x26, [sp, #64]
    1fcc:	a94573fb 	ldp	x27, x28, [sp, #80]
    1fd0:	a8c87bfd 	ldp	x29, x30, [sp], #128
    1fd4:	d65f03c0 	ret

0000000000001fd8 <TEE_OpenTASession>:
TEE_OpenTASession():
/optee/optee_os/lib/libutee/tee_api.c:323
    1fd8:	a9b27bfd 	stp	x29, x30, [sp, #-224]!
    1fdc:	900000c6 	adrp	x6, 19000 <_DYNAMIC>
    1fe0:	910003fd 	mov	x29, sp
    1fe4:	f94098c6 	ldr	x6, [x6, #304]
    1fe8:	a90153f3 	stp	x19, x20, [sp, #16]
    1fec:	2a0203f3 	mov	w19, w2
    1ff0:	a9025bf5 	stp	x21, x22, [sp, #32]
    1ff4:	aa0303f4 	mov	x20, x3
    1ff8:	aa0403f5 	mov	x21, x4
    1ffc:	a90363f7 	stp	x23, x24, [sp, #48]
    2000:	aa0003f7 	mov	x23, x0
    2004:	2a0103f8 	mov	w24, w1
    2008:	a9046bf9 	stp	x25, x26, [sp, #64]
    200c:	aa0503f9 	mov	x25, x5
    2010:	f94000c0 	ldr	x0, [x6]
    2014:	f9006fe0 	str	x0, [sp, #216]
    2018:	d2800000 	mov	x0, #0x0                   	// #0
/optee/optee_os/lib/libutee/tee_api.c:326
    201c:	b9005fff 	str	wzr, [sp, #92]
/optee/optee_os/lib/libutee/tee_api.c:328
    2020:	a9067fff 	stp	xzr, xzr, [sp, #96]
/optee/optee_os/lib/libutee/tee_api.c:329
    2024:	a9077fff 	stp	xzr, xzr, [sp, #112]
    2028:	a9087fff 	stp	xzr, xzr, [sp, #128]
/optee/optee_os/lib/libutee/tee_api.c:325
    202c:	a9097fff 	stp	xzr, xzr, [sp, #144]
    2030:	a90a7fff 	stp	xzr, xzr, [sp, #160]
    2034:	a90b7fff 	stp	xzr, xzr, [sp, #176]
    2038:	a90c7fff 	stp	xzr, xzr, [sp, #192]
    203c:	f9006bff 	str	xzr, [sp, #208]
/optee/optee_os/lib/libutee/tee_api.c:331
    2040:	340000e2 	cbz	w2, 205c <TEE_OpenTASession+0x84>
/optee/optee_os/lib/libutee/tee_api.c:332
    2044:	aa0303e0 	mov	x0, x3
    2048:	d2800801 	mov	x1, #0x40                  	// #64
    204c:	94001b4e 	bl	8d84 <__utee_check_inout_annotation>
/optee/optee_os/lib/libutee/tee_api.c:335
    2050:	aa1403e1 	mov	x1, x20
    2054:	2a1303e0 	mov	w0, w19
    2058:	97fffe88 	bl	1a78 <check_invoke_param>
/optee/optee_os/lib/libutee/tee_api.c:337
    205c:	aa1503e0 	mov	x0, x21
/optee/optee_os/lib/libutee/tee_api.c:339
    2060:	910243f6 	add	x22, sp, #0x90
/optee/optee_os/lib/libutee/tee_api.c:337
    2064:	d2800101 	mov	x1, #0x8                   	// #8
    2068:	94001b35 	bl	8d3c <__utee_check_out_annotation>
/optee/optee_os/lib/libutee/tee_api.c:339
    206c:	2a1303e1 	mov	w1, w19
    2070:	aa1403e2 	mov	x2, x20
    2074:	aa1603e0 	mov	x0, x22
/optee/optee_os/lib/libutee/tee_api.c:340
    2078:	9101c3fa 	add	x26, sp, #0x70
/optee/optee_os/lib/libutee/tee_api.c:339
    207c:	97fffe11 	bl	18c0 <copy_param>
/optee/optee_os/lib/libutee/tee_api.c:340
    2080:	910183e1 	add	x1, sp, #0x60
    2084:	aa1a03e3 	mov	x3, x26
    2088:	9101a3e2 	add	x2, sp, #0x68
    208c:	aa1603e0 	mov	x0, x22
    2090:	97ffff6b 	bl	1e3c <map_tmp_param>
    2094:	2a0003f3 	mov	w19, w0
/optee/optee_os/lib/libutee/tee_api.c:341
    2098:	35000260 	cbnz	w0, 20e4 <TEE_OpenTASession+0x10c>
/optee/optee_os/lib/libutee/tee_api.c:343
    209c:	aa1903e4 	mov	x4, x25
    20a0:	910173e3 	add	x3, sp, #0x5c
    20a4:	aa1603e2 	mov	x2, x22
    20a8:	2a1803e1 	mov	w1, w24
    20ac:	aa1703e0 	mov	x0, x23
    20b0:	94001dce 	bl	97e8 <_utee_open_ta_session>
/optee/optee_os/lib/libutee/tee_api.c:345
    20b4:	aa1603e2 	mov	x2, x22
/optee/optee_os/lib/libutee/tee_api.c:343
    20b8:	2a0003f3 	mov	w19, w0
/optee/optee_os/lib/libutee/tee_api.c:345
    20bc:	aa1a03e1 	mov	x1, x26
    20c0:	aa1403e0 	mov	x0, x20
    20c4:	97fffe97 	bl	1b20 <update_out_param>
/optee/optee_os/lib/libutee/tee_api.c:346
    20c8:	f94033e0 	ldr	x0, [sp, #96]
    20cc:	b40000a0 	cbz	x0, 20e0 <TEE_OpenTASession+0x108>
/optee/optee_os/lib/libutee/tee_api.c:347
    20d0:	f94037e1 	ldr	x1, [sp, #104]
    20d4:	94001b7a 	bl	8ebc <tee_unmap>
/optee/optee_os/lib/libutee/tee_api.c:349
    20d8:	34000040 	cbz	w0, 20e0 <TEE_OpenTASession+0x108>
/optee/optee_os/lib/libutee/tee_api.c:350
    20dc:	94001aba 	bl	8bc4 <TEE_Panic>
/optee/optee_os/lib/libutee/tee_api.c:359
    20e0:	34000053 	cbz	w19, 20e8 <TEE_OpenTASession+0x110>
/optee/optee_os/lib/libutee/tee_api.c:360
    20e4:	b9005fff 	str	wzr, [sp, #92]
/optee/optee_os/lib/libutee/tee_api.c:364
    20e8:	f00000a6 	adrp	x6, 19000 <_DYNAMIC>
/optee/optee_os/lib/libutee/tee_api.c:362
    20ec:	b9405fe0 	ldr	w0, [sp, #92]
    20f0:	f90002a0 	str	x0, [x21]
/optee/optee_os/lib/libutee/tee_api.c:364
    20f4:	f94098c6 	ldr	x6, [x6, #304]
    20f8:	f9406fe0 	ldr	x0, [sp, #216]
    20fc:	f94000c1 	ldr	x1, [x6]
    2100:	eb010000 	subs	x0, x0, x1
    2104:	d2800001 	mov	x1, #0x0                   	// #0
    2108:	54000040 	b.eq	2110 <TEE_OpenTASession+0x138>  // b.none
    210c:	97fff90c 	bl	53c <__stack_chk_fail>
    2110:	2a1303e0 	mov	w0, w19
    2114:	a94153f3 	ldp	x19, x20, [sp, #16]
    2118:	a9425bf5 	ldp	x21, x22, [sp, #32]
    211c:	a94363f7 	ldp	x23, x24, [sp, #48]
    2120:	a9446bf9 	ldp	x25, x26, [sp, #64]
    2124:	a8ce7bfd 	ldp	x29, x30, [sp], #224
    2128:	d65f03c0 	ret

000000000000212c <__GP11_TEE_OpenTASession>:
__GP11_TEE_OpenTASession():
/optee/optee_os/lib/libutee/tee_api.c:372
    212c:	a9b27bfd 	stp	x29, x30, [sp, #-224]!
    2130:	f00000a6 	adrp	x6, 19000 <_DYNAMIC>
    2134:	910003fd 	mov	x29, sp
    2138:	f94098c6 	ldr	x6, [x6, #304]
    213c:	a90153f3 	stp	x19, x20, [sp, #16]
    2140:	2a0203f3 	mov	w19, w2
    2144:	a9025bf5 	stp	x21, x22, [sp, #32]
    2148:	aa0303f4 	mov	x20, x3
    214c:	aa0403f5 	mov	x21, x4
    2150:	a90363f7 	stp	x23, x24, [sp, #48]
    2154:	aa0003f7 	mov	x23, x0
    2158:	2a0103f8 	mov	w24, w1
    215c:	a9046bf9 	stp	x25, x26, [sp, #64]
    2160:	aa0503f9 	mov	x25, x5
    2164:	f94000c0 	ldr	x0, [x6]
    2168:	f9006fe0 	str	x0, [sp, #216]
    216c:	d2800000 	mov	x0, #0x0                   	// #0
/optee/optee_os/lib/libutee/tee_api.c:375
    2170:	b9005fff 	str	wzr, [sp, #92]
/optee/optee_os/lib/libutee/tee_api.c:377
    2174:	a9067fff 	stp	xzr, xzr, [sp, #96]
/optee/optee_os/lib/libutee/tee_api.c:378
    2178:	a9077fff 	stp	xzr, xzr, [sp, #112]
    217c:	a9087fff 	stp	xzr, xzr, [sp, #128]
/optee/optee_os/lib/libutee/tee_api.c:374
    2180:	a9097fff 	stp	xzr, xzr, [sp, #144]
    2184:	a90a7fff 	stp	xzr, xzr, [sp, #160]
    2188:	a90b7fff 	stp	xzr, xzr, [sp, #176]
    218c:	a90c7fff 	stp	xzr, xzr, [sp, #192]
    2190:	f9006bff 	str	xzr, [sp, #208]
/optee/optee_os/lib/libutee/tee_api.c:380
    2194:	34000082 	cbz	w2, 21a4 <__GP11_TEE_OpenTASession+0x78>
/optee/optee_os/lib/libutee/tee_api.c:381
    2198:	aa0303e0 	mov	x0, x3
    219c:	d2800801 	mov	x1, #0x40                  	// #64
    21a0:	94001af9 	bl	8d84 <__utee_check_inout_annotation>
/optee/optee_os/lib/libutee/tee_api.c:384
    21a4:	aa1503e0 	mov	x0, x21
/optee/optee_os/lib/libutee/tee_api.c:386
    21a8:	910243f6 	add	x22, sp, #0x90
/optee/optee_os/lib/libutee/tee_api.c:384
    21ac:	d2800101 	mov	x1, #0x8                   	// #8
    21b0:	94001ae3 	bl	8d3c <__utee_check_out_annotation>
/optee/optee_os/lib/libutee/tee_api.c:386
    21b4:	2a1303e1 	mov	w1, w19
    21b8:	aa1403e2 	mov	x2, x20
    21bc:	aa1603e0 	mov	x0, x22
/optee/optee_os/lib/libutee/tee_api.c:387
    21c0:	9101c3fa 	add	x26, sp, #0x70
/optee/optee_os/lib/libutee/tee_api.c:386
    21c4:	97fffdda 	bl	192c <copy_gp11_param>
/optee/optee_os/lib/libutee/tee_api.c:387
    21c8:	910183e1 	add	x1, sp, #0x60
    21cc:	aa1a03e3 	mov	x3, x26
    21d0:	9101a3e2 	add	x2, sp, #0x68
    21d4:	aa1603e0 	mov	x0, x22
    21d8:	97ffff19 	bl	1e3c <map_tmp_param>
    21dc:	2a0003f3 	mov	w19, w0
/optee/optee_os/lib/libutee/tee_api.c:388
    21e0:	35000260 	cbnz	w0, 222c <__GP11_TEE_OpenTASession+0x100>
/optee/optee_os/lib/libutee/tee_api.c:390
    21e4:	aa1903e4 	mov	x4, x25
    21e8:	910173e3 	add	x3, sp, #0x5c
    21ec:	aa1603e2 	mov	x2, x22
    21f0:	2a1803e1 	mov	w1, w24
    21f4:	aa1703e0 	mov	x0, x23
    21f8:	94001d7c 	bl	97e8 <_utee_open_ta_session>
/optee/optee_os/lib/libutee/tee_api.c:392
    21fc:	aa1603e2 	mov	x2, x22
/optee/optee_os/lib/libutee/tee_api.c:390
    2200:	2a0003f3 	mov	w19, w0
/optee/optee_os/lib/libutee/tee_api.c:392
    2204:	aa1a03e1 	mov	x1, x26
    2208:	aa1403e0 	mov	x0, x20
    220c:	97fffe6e 	bl	1bc4 <update_out_gp11_param>
/optee/optee_os/lib/libutee/tee_api.c:393
    2210:	f94033e0 	ldr	x0, [sp, #96]
    2214:	b40000a0 	cbz	x0, 2228 <__GP11_TEE_OpenTASession+0xfc>
/optee/optee_os/lib/libutee/tee_api.c:394
    2218:	f94037e1 	ldr	x1, [sp, #104]
    221c:	94001b28 	bl	8ebc <tee_unmap>
/optee/optee_os/lib/libutee/tee_api.c:396
    2220:	34000040 	cbz	w0, 2228 <__GP11_TEE_OpenTASession+0xfc>
/optee/optee_os/lib/libutee/tee_api.c:397
    2224:	94001a68 	bl	8bc4 <TEE_Panic>
/optee/optee_os/lib/libutee/tee_api.c:406
    2228:	34000053 	cbz	w19, 2230 <__GP11_TEE_OpenTASession+0x104>
/optee/optee_os/lib/libutee/tee_api.c:407
    222c:	b9005fff 	str	wzr, [sp, #92]
/optee/optee_os/lib/libutee/tee_api.c:411
    2230:	f00000a6 	adrp	x6, 19000 <_DYNAMIC>
/optee/optee_os/lib/libutee/tee_api.c:409
    2234:	b9405fe0 	ldr	w0, [sp, #92]
    2238:	f90002a0 	str	x0, [x21]
/optee/optee_os/lib/libutee/tee_api.c:411
    223c:	f94098c6 	ldr	x6, [x6, #304]
    2240:	f9406fe0 	ldr	x0, [sp, #216]
    2244:	f94000c1 	ldr	x1, [x6]
    2248:	eb010000 	subs	x0, x0, x1
    224c:	d2800001 	mov	x1, #0x0                   	// #0
    2250:	54000040 	b.eq	2258 <__GP11_TEE_OpenTASession+0x12c>  // b.none
    2254:	97fff8ba 	bl	53c <__stack_chk_fail>
    2258:	2a1303e0 	mov	w0, w19
    225c:	a94153f3 	ldp	x19, x20, [sp, #16]
    2260:	a9425bf5 	ldp	x21, x22, [sp, #32]
    2264:	a94363f7 	ldp	x23, x24, [sp, #48]
    2268:	a9446bf9 	ldp	x25, x26, [sp, #64]
    226c:	a8ce7bfd 	ldp	x29, x30, [sp], #224
    2270:	d65f03c0 	ret

0000000000002274 <TEE_InvokeTACommand>:
TEE_InvokeTACommand():
/optee/optee_os/lib/libutee/tee_api.c:428
    2274:	a9b27bfd 	stp	x29, x30, [sp, #-224]!
    2278:	f00000a6 	adrp	x6, 19000 <_DYNAMIC>
    227c:	910003fd 	mov	x29, sp
    2280:	f94098c6 	ldr	x6, [x6, #304]
    2284:	a90153f3 	stp	x19, x20, [sp, #16]
    2288:	2a0303f3 	mov	w19, w3
    228c:	a9025bf5 	stp	x21, x22, [sp, #32]
    2290:	aa0003f6 	mov	x22, x0
    2294:	aa0403f5 	mov	x21, x4
    2298:	a90363f7 	stp	x23, x24, [sp, #48]
    229c:	aa0503f4 	mov	x20, x5
    22a0:	2a0103f7 	mov	w23, w1
    22a4:	a9046bf9 	stp	x25, x26, [sp, #64]
    22a8:	2a0203f8 	mov	w24, w2
    22ac:	f94000c0 	ldr	x0, [x6]
    22b0:	f9006fe0 	str	x0, [sp, #216]
    22b4:	d2800000 	mov	x0, #0x0                   	// #0
/optee/optee_os/lib/libutee/tee_api.c:433
    22b8:	a9067fff 	stp	xzr, xzr, [sp, #96]
/optee/optee_os/lib/libutee/tee_api.c:430
    22bc:	52800060 	mov	w0, #0x3                   	// #3
    22c0:	b9005fe0 	str	w0, [sp, #92]
/optee/optee_os/lib/libutee/tee_api.c:434
    22c4:	a9077fff 	stp	xzr, xzr, [sp, #112]
    22c8:	a9087fff 	stp	xzr, xzr, [sp, #128]
/optee/optee_os/lib/libutee/tee_api.c:431
    22cc:	a9097fff 	stp	xzr, xzr, [sp, #144]
    22d0:	a90a7fff 	stp	xzr, xzr, [sp, #160]
    22d4:	a90b7fff 	stp	xzr, xzr, [sp, #176]
    22d8:	a90c7fff 	stp	xzr, xzr, [sp, #192]
    22dc:	f9006bff 	str	xzr, [sp, #208]
/optee/optee_os/lib/libutee/tee_api.c:436
    22e0:	340000e3 	cbz	w3, 22fc <TEE_InvokeTACommand+0x88>
/optee/optee_os/lib/libutee/tee_api.c:437
    22e4:	aa0403e0 	mov	x0, x4
    22e8:	d2800801 	mov	x1, #0x40                  	// #64
    22ec:	94001aa6 	bl	8d84 <__utee_check_inout_annotation>
/optee/optee_os/lib/libutee/tee_api.c:440
    22f0:	aa1503e1 	mov	x1, x21
    22f4:	2a1303e0 	mov	w0, w19
    22f8:	97fffde0 	bl	1a78 <check_invoke_param>
/optee/optee_os/lib/libutee/tee_api.c:442
    22fc:	b4000094 	cbz	x20, 230c <TEE_InvokeTACommand+0x98>
/optee/optee_os/lib/libutee/tee_api.c:443
    2300:	aa1403e0 	mov	x0, x20
    2304:	d2800081 	mov	x1, #0x4                   	// #4
    2308:	94001a8d 	bl	8d3c <__utee_check_out_annotation>
/optee/optee_os/lib/libutee/tee_api.c:446
    230c:	910243f9 	add	x25, sp, #0x90
    2310:	2a1303e1 	mov	w1, w19
    2314:	aa1503e2 	mov	x2, x21
    2318:	aa1903e0 	mov	x0, x25
/optee/optee_os/lib/libutee/tee_api.c:447
    231c:	9101c3fa 	add	x26, sp, #0x70
/optee/optee_os/lib/libutee/tee_api.c:446
    2320:	97fffd68 	bl	18c0 <copy_param>
/optee/optee_os/lib/libutee/tee_api.c:447
    2324:	aa1a03e3 	mov	x3, x26
    2328:	9101a3e2 	add	x2, sp, #0x68
    232c:	910183e1 	add	x1, sp, #0x60
    2330:	aa1903e0 	mov	x0, x25
    2334:	97fffec2 	bl	1e3c <map_tmp_param>
    2338:	2a0003f3 	mov	w19, w0
/optee/optee_os/lib/libutee/tee_api.c:448
    233c:	35000240 	cbnz	w0, 2384 <TEE_InvokeTACommand+0x110>
/optee/optee_os/lib/libutee/tee_api.c:450
    2340:	910173e4 	add	x4, sp, #0x5c
    2344:	aa1903e3 	mov	x3, x25
    2348:	2a1803e2 	mov	w2, w24
    234c:	2a1703e1 	mov	w1, w23
    2350:	aa1603e0 	mov	x0, x22
    2354:	94001d2b 	bl	9800 <_utee_invoke_ta_command>
/optee/optee_os/lib/libutee/tee_api.c:453
    2358:	aa1903e2 	mov	x2, x25
/optee/optee_os/lib/libutee/tee_api.c:450
    235c:	2a0003f3 	mov	w19, w0
/optee/optee_os/lib/libutee/tee_api.c:453
    2360:	aa1a03e1 	mov	x1, x26
    2364:	aa1503e0 	mov	x0, x21
    2368:	97fffdee 	bl	1b20 <update_out_param>
/optee/optee_os/lib/libutee/tee_api.c:454
    236c:	f94033e0 	ldr	x0, [sp, #96]
    2370:	b40000a0 	cbz	x0, 2384 <TEE_InvokeTACommand+0x110>
/optee/optee_os/lib/libutee/tee_api.c:455
    2374:	f94037e1 	ldr	x1, [sp, #104]
    2378:	94001ad1 	bl	8ebc <tee_unmap>
/optee/optee_os/lib/libutee/tee_api.c:457
    237c:	34000040 	cbz	w0, 2384 <TEE_InvokeTACommand+0x110>
/optee/optee_os/lib/libutee/tee_api.c:458
    2380:	94001a11 	bl	8bc4 <TEE_Panic>
/optee/optee_os/lib/libutee/tee_api.c:463
    2384:	b9405fe0 	ldr	w0, [sp, #92]
/optee/optee_os/lib/libutee/tee_api.c:462
    2388:	b4000054 	cbz	x20, 2390 <TEE_InvokeTACommand+0x11c>
/optee/optee_os/lib/libutee/tee_api.c:463
    238c:	b9000280 	str	w0, [x20]
/optee/optee_os/lib/libutee/tee_api.c:465
    2390:	7100101f 	cmp	w0, #0x4
    2394:	54000140 	b.eq	23bc <TEE_InvokeTACommand+0x148>  // b.none
/optee/optee_os/lib/libutee/tee_api.c:468
    2398:	7100027f 	cmp	w19, #0x0
    239c:	129ffe60 	mov	w0, #0xffff000c            	// #-65524
    23a0:	7a401264 	ccmp	w19, w0, #0x4, ne  // ne = any
    23a4:	540000c0 	b.eq	23bc <TEE_InvokeTACommand+0x148>  // b.none
/optee/optee_os/lib/libutee/tee_api.c:469
    23a8:	1299fb60 	mov	w0, #0xffff3024            	// #-53212
    23ac:	6b00027f 	cmp	w19, w0
    23b0:	54000060 	b.eq	23bc <TEE_InvokeTACommand+0x148>  // b.none
/optee/optee_os/lib/libutee/tee_api.c:471
    23b4:	2a1303e0 	mov	w0, w19
    23b8:	94001a03 	bl	8bc4 <TEE_Panic>
/optee/optee_os/lib/libutee/tee_api.c:474
    23bc:	f00000a6 	adrp	x6, 19000 <_DYNAMIC>
    23c0:	f94098c6 	ldr	x6, [x6, #304]
    23c4:	f9406fe0 	ldr	x0, [sp, #216]
    23c8:	f94000c1 	ldr	x1, [x6]
    23cc:	eb010000 	subs	x0, x0, x1
    23d0:	d2800001 	mov	x1, #0x0                   	// #0
    23d4:	54000040 	b.eq	23dc <TEE_InvokeTACommand+0x168>  // b.none
    23d8:	97fff859 	bl	53c <__stack_chk_fail>
    23dc:	2a1303e0 	mov	w0, w19
    23e0:	a94153f3 	ldp	x19, x20, [sp, #16]
    23e4:	a9425bf5 	ldp	x21, x22, [sp, #32]
    23e8:	a94363f7 	ldp	x23, x24, [sp, #48]
    23ec:	a9446bf9 	ldp	x25, x26, [sp, #64]
    23f0:	a8ce7bfd 	ldp	x29, x30, [sp], #224
    23f4:	d65f03c0 	ret

00000000000023f8 <__GP11_TEE_InvokeTACommand>:
__GP11_TEE_InvokeTACommand():
/optee/optee_os/lib/libutee/tee_api.c:481
    23f8:	a9b27bfd 	stp	x29, x30, [sp, #-224]!
    23fc:	f00000a6 	adrp	x6, 19000 <_DYNAMIC>
    2400:	910003fd 	mov	x29, sp
    2404:	f94098c6 	ldr	x6, [x6, #304]
    2408:	a90153f3 	stp	x19, x20, [sp, #16]
    240c:	2a0303f3 	mov	w19, w3
    2410:	a9025bf5 	stp	x21, x22, [sp, #32]
    2414:	aa0503f4 	mov	x20, x5
    2418:	aa0403f5 	mov	x21, x4
    241c:	a90363f7 	stp	x23, x24, [sp, #48]
    2420:	aa0003f7 	mov	x23, x0
    2424:	2a0103f8 	mov	w24, w1
    2428:	a9046bf9 	stp	x25, x26, [sp, #64]
    242c:	2a0203f9 	mov	w25, w2
    2430:	f94000c0 	ldr	x0, [x6]
    2434:	f9006fe0 	str	x0, [sp, #216]
    2438:	d2800000 	mov	x0, #0x0                   	// #0
/optee/optee_os/lib/libutee/tee_api.c:486
    243c:	a9067fff 	stp	xzr, xzr, [sp, #96]
/optee/optee_os/lib/libutee/tee_api.c:483
    2440:	52800060 	mov	w0, #0x3                   	// #3
    2444:	b9005fe0 	str	w0, [sp, #92]
/optee/optee_os/lib/libutee/tee_api.c:487
    2448:	a9077fff 	stp	xzr, xzr, [sp, #112]
    244c:	a9087fff 	stp	xzr, xzr, [sp, #128]
/optee/optee_os/lib/libutee/tee_api.c:484
    2450:	a9097fff 	stp	xzr, xzr, [sp, #144]
    2454:	a90a7fff 	stp	xzr, xzr, [sp, #160]
    2458:	a90b7fff 	stp	xzr, xzr, [sp, #176]
    245c:	a90c7fff 	stp	xzr, xzr, [sp, #192]
    2460:	f9006bff 	str	xzr, [sp, #208]
/optee/optee_os/lib/libutee/tee_api.c:489
    2464:	34000083 	cbz	w3, 2474 <__GP11_TEE_InvokeTACommand+0x7c>
/optee/optee_os/lib/libutee/tee_api.c:490
    2468:	aa0403e0 	mov	x0, x4
    246c:	d2800801 	mov	x1, #0x40                  	// #64
    2470:	94001a45 	bl	8d84 <__utee_check_inout_annotation>
/optee/optee_os/lib/libutee/tee_api.c:493
    2474:	b4000094 	cbz	x20, 2484 <__GP11_TEE_InvokeTACommand+0x8c>
/optee/optee_os/lib/libutee/tee_api.c:494
    2478:	aa1403e0 	mov	x0, x20
    247c:	d2800081 	mov	x1, #0x4                   	// #4
    2480:	94001a2f 	bl	8d3c <__utee_check_out_annotation>
/optee/optee_os/lib/libutee/tee_api.c:497
    2484:	910243f6 	add	x22, sp, #0x90
    2488:	2a1303e1 	mov	w1, w19
    248c:	aa1503e2 	mov	x2, x21
    2490:	aa1603e0 	mov	x0, x22
/optee/optee_os/lib/libutee/tee_api.c:498
    2494:	9101c3fa 	add	x26, sp, #0x70
/optee/optee_os/lib/libutee/tee_api.c:497
    2498:	97fffd25 	bl	192c <copy_gp11_param>
/optee/optee_os/lib/libutee/tee_api.c:498
    249c:	aa1a03e3 	mov	x3, x26
    24a0:	9101a3e2 	add	x2, sp, #0x68
    24a4:	910183e1 	add	x1, sp, #0x60
    24a8:	aa1603e0 	mov	x0, x22
    24ac:	97fffe64 	bl	1e3c <map_tmp_param>
    24b0:	2a0003f3 	mov	w19, w0
/optee/optee_os/lib/libutee/tee_api.c:499
    24b4:	35000240 	cbnz	w0, 24fc <__GP11_TEE_InvokeTACommand+0x104>
/optee/optee_os/lib/libutee/tee_api.c:501
    24b8:	910173e4 	add	x4, sp, #0x5c
    24bc:	aa1603e3 	mov	x3, x22
    24c0:	2a1903e2 	mov	w2, w25
    24c4:	2a1803e1 	mov	w1, w24
    24c8:	aa1703e0 	mov	x0, x23
    24cc:	94001ccd 	bl	9800 <_utee_invoke_ta_command>
/optee/optee_os/lib/libutee/tee_api.c:504
    24d0:	aa1603e2 	mov	x2, x22
/optee/optee_os/lib/libutee/tee_api.c:501
    24d4:	2a0003f3 	mov	w19, w0
/optee/optee_os/lib/libutee/tee_api.c:504
    24d8:	aa1a03e1 	mov	x1, x26
    24dc:	aa1503e0 	mov	x0, x21
    24e0:	97fffdb9 	bl	1bc4 <update_out_gp11_param>
/optee/optee_os/lib/libutee/tee_api.c:505
    24e4:	f94033e0 	ldr	x0, [sp, #96]
    24e8:	b40000a0 	cbz	x0, 24fc <__GP11_TEE_InvokeTACommand+0x104>
/optee/optee_os/lib/libutee/tee_api.c:506
    24ec:	f94037e1 	ldr	x1, [sp, #104]
    24f0:	94001a73 	bl	8ebc <tee_unmap>
/optee/optee_os/lib/libutee/tee_api.c:508
    24f4:	34000040 	cbz	w0, 24fc <__GP11_TEE_InvokeTACommand+0x104>
/optee/optee_os/lib/libutee/tee_api.c:509
    24f8:	940019b3 	bl	8bc4 <TEE_Panic>
/optee/optee_os/lib/libutee/tee_api.c:514
    24fc:	b9405fe0 	ldr	w0, [sp, #92]
/optee/optee_os/lib/libutee/tee_api.c:513
    2500:	b4000054 	cbz	x20, 2508 <__GP11_TEE_InvokeTACommand+0x110>
/optee/optee_os/lib/libutee/tee_api.c:514
    2504:	b9000280 	str	w0, [x20]
/optee/optee_os/lib/libutee/tee_api.c:516
    2508:	7100101f 	cmp	w0, #0x4
    250c:	54000140 	b.eq	2534 <__GP11_TEE_InvokeTACommand+0x13c>  // b.none
/optee/optee_os/lib/libutee/tee_api.c:519
    2510:	7100027f 	cmp	w19, #0x0
    2514:	129ffe60 	mov	w0, #0xffff000c            	// #-65524
    2518:	7a401264 	ccmp	w19, w0, #0x4, ne  // ne = any
    251c:	540000c0 	b.eq	2534 <__GP11_TEE_InvokeTACommand+0x13c>  // b.none
/optee/optee_os/lib/libutee/tee_api.c:520
    2520:	1299fb60 	mov	w0, #0xffff3024            	// #-53212
    2524:	6b00027f 	cmp	w19, w0
    2528:	54000060 	b.eq	2534 <__GP11_TEE_InvokeTACommand+0x13c>  // b.none
/optee/optee_os/lib/libutee/tee_api.c:522
    252c:	2a1303e0 	mov	w0, w19
    2530:	940019a5 	bl	8bc4 <TEE_Panic>
/optee/optee_os/lib/libutee/tee_api.c:525
    2534:	f00000a6 	adrp	x6, 19000 <_DYNAMIC>
    2538:	f94098c6 	ldr	x6, [x6, #304]
    253c:	f9406fe0 	ldr	x0, [sp, #216]
    2540:	f94000c1 	ldr	x1, [x6]
    2544:	eb010000 	subs	x0, x0, x1
    2548:	d2800001 	mov	x1, #0x0                   	// #0
    254c:	54000040 	b.eq	2554 <__GP11_TEE_InvokeTACommand+0x15c>  // b.none
    2550:	97fff7fb 	bl	53c <__stack_chk_fail>
    2554:	2a1303e0 	mov	w0, w19
    2558:	a94153f3 	ldp	x19, x20, [sp, #16]
    255c:	a9425bf5 	ldp	x21, x22, [sp, #32]
    2560:	a94363f7 	ldp	x23, x24, [sp, #48]
    2564:	a9446bf9 	ldp	x25, x26, [sp, #64]
    2568:	a8ce7bfd 	ldp	x29, x30, [sp], #224
    256c:	d65f03c0 	ret

0000000000002570 <__GP11_TEE_CheckMemoryAccessRights>:
__GP11_TEE_CheckMemoryAccessRights():
/optee/optee_os/lib/libutee/tee_api.c:597
    2570:	2a0203e2 	mov	w2, w2
    2574:	17fffe10 	b	1db4 <TEE_CheckMemoryAccessRights>

0000000000002578 <TEE_SetInstanceData>:
TEE_SetInstanceData():
/optee/optee_os/lib/libutee/tee_api.c:602
    2578:	f00000a1 	adrp	x1, 19000 <_DYNAMIC>
    257c:	f9032820 	str	x0, [x1, #1616]
/optee/optee_os/lib/libutee/tee_api.c:603
    2580:	d65f03c0 	ret

0000000000002584 <TEE_GetInstanceData>:
TEE_GetInstanceData():
/optee/optee_os/lib/libutee/tee_api.c:608
    2584:	f00000a0 	adrp	x0, 19000 <_DYNAMIC>
    2588:	f9432800 	ldr	x0, [x0, #1616]
    258c:	d65f03c0 	ret

0000000000002590 <TEE_MemMove>:
TEE_MemMove():
/optee/optee_os/lib/libutee/tee_api.c:612
    2590:	14004396 	b	133e8 <memmove>

0000000000002594 <__GP11_TEE_MemMove>:
__GP11_TEE_MemMove():
/optee/optee_os/lib/libutee/tee_api.c:617
    2594:	2a0203e2 	mov	w2, w2
    2598:	17fffffe 	b	2590 <TEE_MemMove>

000000000000259c <TEE_MemCompare>:
TEE_MemCompare():
/optee/optee_os/lib/libutee/tee_api.c:622
    259c:	1400442e 	b	13654 <consttime_memcmp>

00000000000025a0 <__GP11_TEE_MemCompare>:
__GP11_TEE_MemCompare():
/optee/optee_os/lib/libutee/tee_api.c:628
    25a0:	2a0203e2 	mov	w2, w2
    25a4:	17fffffe 	b	259c <TEE_MemCompare>

00000000000025a8 <TEE_MemFill>:
TEE_MemFill():
/optee/optee_os/lib/libutee/tee_api.c:633
    25a8:	140043a7 	b	13444 <memset>

00000000000025ac <__GP11_TEE_MemFill>:
__GP11_TEE_MemFill():
/optee/optee_os/lib/libutee/tee_api.c:638
    25ac:	2a0203e2 	mov	w2, w2
    25b0:	17fffffe 	b	25a8 <TEE_MemFill>

00000000000025b4 <TEE_GetSystemTime>:
TEE_GetSystemTime():
/optee/optee_os/lib/libutee/tee_api.c:644
    25b4:	a9bf7bfd 	stp	x29, x30, [sp, #-16]!
/optee/optee_os/lib/libutee/tee_api.c:645
    25b8:	aa0003e1 	mov	x1, x0
    25bc:	d2800000 	mov	x0, #0x0                   	// #0
/optee/optee_os/lib/libutee/tee_api.c:644
    25c0:	910003fd 	mov	x29, sp
/optee/optee_os/lib/libutee/tee_api.c:645
    25c4:	94001ca1 	bl	9848 <_utee_get_time>
/optee/optee_os/lib/libutee/tee_api.c:647
    25c8:	34000060 	cbz	w0, 25d4 <TEE_GetSystemTime+0x20>
/optee/optee_os/lib/libutee/tee_api.c:649
    25cc:	a8c17bfd 	ldp	x29, x30, [sp], #16
/optee/optee_os/lib/libutee/tee_api.c:648
    25d0:	1400197d 	b	8bc4 <TEE_Panic>
/optee/optee_os/lib/libutee/tee_api.c:649
    25d4:	a8c17bfd 	ldp	x29, x30, [sp], #16
    25d8:	d65f03c0 	ret

00000000000025dc <TEE_Wait>:
TEE_Wait():
/optee/optee_os/lib/libutee/tee_api.c:652
    25dc:	a9be7bfd 	stp	x29, x30, [sp, #-32]!
/optee/optee_os/lib/libutee/tee_api.c:653
    25e0:	2a0003e0 	mov	w0, w0
/optee/optee_os/lib/libutee/tee_api.c:652
    25e4:	910003fd 	mov	x29, sp
    25e8:	f9000bf3 	str	x19, [sp, #16]
/optee/optee_os/lib/libutee/tee_api.c:653
    25ec:	94001c94 	bl	983c <_utee_wait>
/optee/optee_os/lib/libutee/tee_api.c:655
    25f0:	7100001f 	cmp	w0, #0x0
    25f4:	129fffa1 	mov	w1, #0xffff0002            	// #-65534
/optee/optee_os/lib/libutee/tee_api.c:653
    25f8:	2a0003f3 	mov	w19, w0
/optee/optee_os/lib/libutee/tee_api.c:655
    25fc:	7a411004 	ccmp	w0, w1, #0x4, ne  // ne = any
    2600:	54000040 	b.eq	2608 <TEE_Wait+0x2c>  // b.none
/optee/optee_os/lib/libutee/tee_api.c:656
    2604:	94001970 	bl	8bc4 <TEE_Panic>
/optee/optee_os/lib/libutee/tee_api.c:659
    2608:	2a1303e0 	mov	w0, w19
    260c:	f9400bf3 	ldr	x19, [sp, #16]
    2610:	a8c27bfd 	ldp	x29, x30, [sp], #32
    2614:	d65f03c0 	ret

0000000000002618 <TEE_GetTAPersistentTime>:
TEE_GetTAPersistentTime():
/optee/optee_os/lib/libutee/tee_api.c:662
    2618:	a9be7bfd 	stp	x29, x30, [sp, #-32]!
/optee/optee_os/lib/libutee/tee_api.c:665
    261c:	aa0003e1 	mov	x1, x0
/optee/optee_os/lib/libutee/tee_api.c:662
    2620:	910003fd 	mov	x29, sp
    2624:	a90153f3 	stp	x19, x20, [sp, #16]
    2628:	aa0003f4 	mov	x20, x0
/optee/optee_os/lib/libutee/tee_api.c:665
    262c:	d2800020 	mov	x0, #0x1                   	// #1
    2630:	94001c86 	bl	9848 <_utee_get_time>
/optee/optee_os/lib/libutee/tee_api.c:667
    2634:	7100001f 	cmp	w0, #0x0
/optee/optee_os/lib/libutee/tee_api.c:665
    2638:	2a0003f3 	mov	w19, w0
/optee/optee_os/lib/libutee/tee_api.c:667
    263c:	1a9f07e2 	cset	w2, ne  // ne = any
    2640:	1299fe00 	mov	w0, #0xffff300f            	// #-53233
    2644:	6b00027f 	cmp	w19, w0
    2648:	1a9f07e0 	cset	w0, ne  // ne = any
    264c:	6a000040 	ands	w0, w2, w0
    2650:	54000040 	b.eq	2658 <TEE_GetTAPersistentTime+0x40>  // b.none
/optee/optee_os/lib/libutee/tee_api.c:669
    2654:	29007e9f 	stp	wzr, wzr, [x20]
/optee/optee_os/lib/libutee/tee_api.c:673
    2658:	11402e61 	add	w1, w19, #0xb, lsl #12
/optee/optee_os/lib/libutee/tee_api.c:672
    265c:	7100005f 	cmp	w2, #0x0
    2660:	7a411820 	ccmp	w1, #0x1, #0x0, ne  // ne = any
    2664:	540000e9 	b.ls	2680 <TEE_GetTAPersistentTime+0x68>  // b.plast
/optee/optee_os/lib/libutee/tee_api.c:674
    2668:	340000c0 	cbz	w0, 2680 <TEE_GetTAPersistentTime+0x68>
/optee/optee_os/lib/libutee/tee_api.c:675
    266c:	129ffe60 	mov	w0, #0xffff000c            	// #-65524
    2670:	6b00027f 	cmp	w19, w0
    2674:	54000060 	b.eq	2680 <TEE_GetTAPersistentTime+0x68>  // b.none
/optee/optee_os/lib/libutee/tee_api.c:677
    2678:	2a1303e0 	mov	w0, w19
    267c:	94001952 	bl	8bc4 <TEE_Panic>
/optee/optee_os/lib/libutee/tee_api.c:680
    2680:	2a1303e0 	mov	w0, w19
    2684:	a94153f3 	ldp	x19, x20, [sp, #16]
    2688:	a8c27bfd 	ldp	x29, x30, [sp], #32
    268c:	d65f03c0 	ret

0000000000002690 <TEE_SetTAPersistentTime>:
TEE_SetTAPersistentTime():
/optee/optee_os/lib/libutee/tee_api.c:683
    2690:	a9be7bfd 	stp	x29, x30, [sp, #-32]!
    2694:	910003fd 	mov	x29, sp
    2698:	f9000bf3 	str	x19, [sp, #16]
/optee/optee_os/lib/libutee/tee_api.c:686
    269c:	94001c6e 	bl	9854 <_utee_set_ta_time>
/optee/optee_os/lib/libutee/tee_api.c:688
    26a0:	7100001f 	cmp	w0, #0x0
    26a4:	129ffe61 	mov	w1, #0xffff000c            	// #-65524
/optee/optee_os/lib/libutee/tee_api.c:686
    26a8:	2a0003f3 	mov	w19, w0
/optee/optee_os/lib/libutee/tee_api.c:688
    26ac:	7a411004 	ccmp	w0, w1, #0x4, ne  // ne = any
    26b0:	540000a0 	b.eq	26c4 <TEE_SetTAPersistentTime+0x34>  // b.none
/optee/optee_os/lib/libutee/tee_api.c:689
    26b4:	1299f7c1 	mov	w1, #0xffff3041            	// #-53183
    26b8:	6b01001f 	cmp	w0, w1
    26bc:	54000040 	b.eq	26c4 <TEE_SetTAPersistentTime+0x34>  // b.none
/optee/optee_os/lib/libutee/tee_api.c:691
    26c0:	94001941 	bl	8bc4 <TEE_Panic>
/optee/optee_os/lib/libutee/tee_api.c:694
    26c4:	2a1303e0 	mov	w0, w19
    26c8:	f9400bf3 	ldr	x19, [sp, #16]
    26cc:	a8c27bfd 	ldp	x29, x30, [sp], #32
    26d0:	d65f03c0 	ret

00000000000026d4 <TEE_GetREETime>:
TEE_GetREETime():
/optee/optee_os/lib/libutee/tee_api.c:697
    26d4:	a9bf7bfd 	stp	x29, x30, [sp, #-16]!
/optee/optee_os/lib/libutee/tee_api.c:698
    26d8:	aa0003e1 	mov	x1, x0
    26dc:	d2800040 	mov	x0, #0x2                   	// #2
/optee/optee_os/lib/libutee/tee_api.c:697
    26e0:	910003fd 	mov	x29, sp
/optee/optee_os/lib/libutee/tee_api.c:698
    26e4:	94001c59 	bl	9848 <_utee_get_time>
/optee/optee_os/lib/libutee/tee_api.c:700
    26e8:	34000060 	cbz	w0, 26f4 <TEE_GetREETime+0x20>
/optee/optee_os/lib/libutee/tee_api.c:702
    26ec:	a8c17bfd 	ldp	x29, x30, [sp], #16
/optee/optee_os/lib/libutee/tee_api.c:701
    26f0:	14001935 	b	8bc4 <TEE_Panic>
/optee/optee_os/lib/libutee/tee_api.c:702
    26f4:	a8c17bfd 	ldp	x29, x30, [sp], #16
    26f8:	d65f03c0 	ret

00000000000026fc <TEE_Malloc>:
TEE_Malloc():
/optee/optee_os/lib/libutee/tee_api.c:705
    26fc:	a9be7bfd 	stp	x29, x30, [sp, #-32]!
    2700:	aa0003e2 	mov	x2, x0
    2704:	910003fd 	mov	x29, sp
    2708:	f9000bf3 	str	x19, [sp, #16]
    270c:	2a0103f3 	mov	w19, w1
/optee/optee_os/lib/libutee/tee_api.c:706
    2710:	71000c3f 	cmp	w1, #0x3
    2714:	54000148 	b.hi	273c <TEE_Malloc+0x40>  // b.pmore
    2718:	51000421 	sub	w1, w1, #0x1
    271c:	7100083f 	cmp	w1, #0x2
    2720:	54000308 	b.hi	2780 <TEE_Malloc+0x84>  // b.pmore
    2724:	b00000a0 	adrp	x0, 17000 <__text_end+0x393c>
    2728:	911ca000 	add	x0, x0, #0x728
    272c:	38614800 	ldrb	w0, [x0, w1, uxtw]
    2730:	10000061 	adr	x1, 273c <TEE_Malloc+0x40>
    2734:	8b208820 	add	x0, x1, w0, sxtb #2
    2738:	d61f0000 	br	x0
    273c:	52b00001 	mov	w1, #0x80000000            	// #-2147483648
    2740:	6b01027f 	cmp	w19, w1
    2744:	540005e0 	b.eq	2800 <TEE_Malloc+0x104>  // b.none
/optee/optee_os/lib/libutee/tee_api.c:739
    2748:	2a1303e5 	mov	w5, w19
    274c:	b00000a4 	adrp	x4, 17000 <__text_end+0x393c>
    2750:	52800023 	mov	w3, #0x1                   	// #1
    2754:	9135c884 	add	x4, x4, #0xd72
    2758:	52800022 	mov	w2, #0x1                   	// #1
    275c:	52805c61 	mov	w1, #0x2e3                 	// #739
    2760:	b00000a0 	adrp	x0, 17000 <__text_end+0x393c>
    2764:	911cc000 	add	x0, x0, #0x730
    2768:	97fff813 	bl	7b4 <trace_printf>
/optee/optee_os/lib/libutee/tee_api.c:741
    276c:	d2800004 	mov	x4, #0x0                   	// #0
/optee/optee_os/lib/libutee/tee_api.c:742
    2770:	aa0403e0 	mov	x0, x4
    2774:	f9400bf3 	ldr	x19, [sp, #16]
    2778:	a8c27bfd 	ldp	x29, x30, [sp], #32
    277c:	d65f03c0 	ret
/optee/optee_os/lib/libutee/tee_api.c:708
    2780:	b40004c0 	cbz	x0, 2818 <TEE_Malloc+0x11c>
/optee/optee_os/lib/libutee/tee_api.c:742
    2784:	f9400bf3 	ldr	x19, [sp, #16]
/optee/optee_os/lib/libutee/tee_api.c:710
    2788:	aa0003e1 	mov	x1, x0
/optee/optee_os/lib/libutee/tee_api.c:742
    278c:	a8c27bfd 	ldp	x29, x30, [sp], #32
/optee/optee_os/lib/libutee/tee_api.c:710
    2790:	d2800020 	mov	x0, #0x1                   	// #1
    2794:	140041cb 	b	12ec0 <calloc>
/optee/optee_os/lib/libutee/tee_api.c:713
    2798:	52800000 	mov	w0, #0x0                   	// #0
    279c:	9400190a 	bl	8bc4 <TEE_Panic>
/optee/optee_os/lib/libutee/tee_api.c:714
    27a0:	17ffffea 	b	2748 <TEE_Malloc+0x4c>
/optee/optee_os/lib/libutee/tee_api.c:717
    27a4:	b4000362 	cbz	x2, 2810 <TEE_Malloc+0x114>
/optee/optee_os/lib/libutee/tee_api.c:719
    27a8:	f00000a0 	adrp	x0, 19000 <_DYNAMIC>
    27ac:	f940d400 	ldr	x0, [x0, #424]
    27b0:	f9400004 	ldr	x4, [x0]
    27b4:	b4fffde4 	cbz	x4, 2770 <TEE_Malloc+0x74>
/optee/optee_os/lib/libutee/tee_api.c:742
    27b8:	f9400bf3 	ldr	x19, [sp, #16]
/optee/optee_os/lib/libutee/tee_api.c:721
    27bc:	aa0203e3 	mov	x3, x2
/optee/optee_os/lib/libutee/tee_api.c:742
    27c0:	a8c27bfd 	ldp	x29, x30, [sp], #32
/optee/optee_os/lib/libutee/tee_api.c:721
    27c4:	d2800022 	mov	x2, #0x1                   	// #1
    27c8:	d2800001 	mov	x1, #0x0                   	// #0
    27cc:	d2800000 	mov	x0, #0x0                   	// #0
    27d0:	1400415c 	b	12d40 <raw_calloc>
/optee/optee_os/lib/libutee/tee_api.c:724
    27d4:	b40001e2 	cbz	x2, 2810 <TEE_Malloc+0x114>
/optee/optee_os/lib/libutee/tee_api.c:726
    27d8:	f00000a0 	adrp	x0, 19000 <_DYNAMIC>
    27dc:	f940d400 	ldr	x0, [x0, #424]
    27e0:	f9400004 	ldr	x4, [x0]
    27e4:	b4fffc64 	cbz	x4, 2770 <TEE_Malloc+0x74>
/optee/optee_os/lib/libutee/tee_api.c:742
    27e8:	f9400bf3 	ldr	x19, [sp, #16]
/optee/optee_os/lib/libutee/tee_api.c:728
    27ec:	aa0403e3 	mov	x3, x4
/optee/optee_os/lib/libutee/tee_api.c:742
    27f0:	a8c27bfd 	ldp	x29, x30, [sp], #32
/optee/optee_os/lib/libutee/tee_api.c:728
    27f4:	d2800001 	mov	x1, #0x0                   	// #0
    27f8:	d2800000 	mov	x0, #0x0                   	// #0
    27fc:	14004149 	b	12d20 <raw_malloc>
/optee/optee_os/lib/libutee/tee_api.c:731
    2800:	b40000c0 	cbz	x0, 2818 <TEE_Malloc+0x11c>
/optee/optee_os/lib/libutee/tee_api.c:742
    2804:	f9400bf3 	ldr	x19, [sp, #16]
    2808:	a8c27bfd 	ldp	x29, x30, [sp], #32
/optee/optee_os/lib/libutee/tee_api.c:733
    280c:	140041a6 	b	12ea4 <malloc>
/optee/optee_os/lib/libutee/tee_api.c:718
    2810:	d2800044 	mov	x4, #0x2                   	// #2
    2814:	17ffffd7 	b	2770 <TEE_Malloc+0x74>
/optee/optee_os/lib/libutee/tee_api.c:709
    2818:	d2800024 	mov	x4, #0x1                   	// #1
    281c:	17ffffd5 	b	2770 <TEE_Malloc+0x74>

0000000000002820 <__GP11_TEE_Malloc>:
__GP11_TEE_Malloc():
/optee/optee_os/lib/libutee/tee_api.c:746
    2820:	2a0003e0 	mov	w0, w0
    2824:	17ffffb6 	b	26fc <TEE_Malloc>

0000000000002828 <TEE_Free>:
TEE_Free():
/optee/optee_os/lib/libutee/tee_api.c:791
    2828:	d1000401 	sub	x1, x0, #0x1
    282c:	f100043f 	cmp	x1, #0x1
    2830:	540002a9 	b.ls	2884 <TEE_Free+0x5c>  // b.plast
/optee/optee_os/lib/libutee/tee_api.c:790
    2834:	a9be7bfd 	stp	x29, x30, [sp, #-32]!
addr_is_in_no_share_heap():
/optee/optee_os/lib/libutee/tee_api.c:751
    2838:	d2800021 	mov	x1, #0x1                   	// #1
TEE_Free():
/optee/optee_os/lib/libutee/tee_api.c:790
    283c:	910003fd 	mov	x29, sp
    2840:	f9000bf3 	str	x19, [sp, #16]
    2844:	aa0003f3 	mov	x19, x0
addr_is_in_no_share_heap():
/optee/optee_os/lib/libutee/tee_api.c:751
    2848:	97fffc7b 	bl	1a34 <buf_overlaps_no_share_heap>
TEE_Free():
/optee/optee_os/lib/libutee/tee_api.c:793
    284c:	72001c1f 	tst	w0, #0xff
    2850:	54000120 	b.eq	2874 <TEE_Free+0x4c>  // b.none
/optee/optee_os/lib/libutee/tee_api.c:794
    2854:	f00000a0 	adrp	x0, 19000 <_DYNAMIC>
    2858:	52800002 	mov	w2, #0x0                   	// #0
    285c:	f940d400 	ldr	x0, [x0, #424]
    2860:	f9400001 	ldr	x1, [x0]
    2864:	aa1303e0 	mov	x0, x19
/optee/optee_os/lib/libutee/tee_api.c:798
    2868:	f9400bf3 	ldr	x19, [sp, #16]
    286c:	a8c27bfd 	ldp	x29, x30, [sp], #32
/optee/optee_os/lib/libutee/tee_api.c:794
    2870:	14004130 	b	12d30 <raw_free>
/optee/optee_os/lib/libutee/tee_api.c:796
    2874:	aa1303e0 	mov	x0, x19
/optee/optee_os/lib/libutee/tee_api.c:798
    2878:	f9400bf3 	ldr	x19, [sp, #16]
    287c:	a8c27bfd 	ldp	x29, x30, [sp], #32
/optee/optee_os/lib/libutee/tee_api.c:796
    2880:	140041ad 	b	12f34 <free>
    2884:	d65f03c0 	ret

0000000000002888 <TEE_Realloc>:
TEE_Realloc():
/optee/optee_os/lib/libutee/tee_api.c:755
    2888:	a9bd7bfd 	stp	x29, x30, [sp, #-48]!
    288c:	910003fd 	mov	x29, sp
    2890:	a90153f3 	stp	x19, x20, [sp, #16]
    2894:	aa0003f3 	mov	x19, x0
    2898:	f90013f5 	str	x21, [sp, #32]
/optee/optee_os/lib/libutee/tee_api.c:756
    289c:	b50001a1 	cbnz	x1, 28d0 <TEE_Realloc+0x48>
addr_is_in_no_share_heap():
/optee/optee_os/lib/libutee/tee_api.c:751
    28a0:	d2800021 	mov	x1, #0x1                   	// #1
    28a4:	97fffc64 	bl	1a34 <buf_overlaps_no_share_heap>
TEE_Realloc():
/optee/optee_os/lib/libutee/tee_api.c:762
    28a8:	72001c1f 	tst	w0, #0xff
/optee/optee_os/lib/libutee/tee_api.c:764
    28ac:	aa1303e0 	mov	x0, x19
/optee/optee_os/lib/libutee/tee_api.c:762
    28b0:	9a9f07f4 	cset	x20, ne  // ne = any
    28b4:	91000694 	add	x20, x20, #0x1
/optee/optee_os/lib/libutee/tee_api.c:764
    28b8:	97ffffdc 	bl	2828 <TEE_Free>
/optee/optee_os/lib/libutee/tee_api.c:782
    28bc:	aa1403e0 	mov	x0, x20
    28c0:	a94153f3 	ldp	x19, x20, [sp, #16]
    28c4:	f94013f5 	ldr	x21, [sp, #32]
    28c8:	a8c37bfd 	ldp	x29, x30, [sp], #48
    28cc:	d65f03c0 	ret
/optee/optee_os/lib/libutee/tee_api.c:769
    28d0:	f100041f 	cmp	x0, #0x1
    28d4:	540000a1 	b.ne	28e8 <TEE_Realloc+0x60>  // b.any
/optee/optee_os/lib/libutee/tee_api.c:782
    28d8:	a94153f3 	ldp	x19, x20, [sp, #16]
    28dc:	f94013f5 	ldr	x21, [sp, #32]
    28e0:	a8c37bfd 	ldp	x29, x30, [sp], #48
/optee/optee_os/lib/libutee/tee_api.c:770
    28e4:	14004177 	b	12ec0 <calloc>
    28e8:	aa0103f5 	mov	x21, x1
/optee/optee_os/lib/libutee/tee_api.c:771
    28ec:	f100081f 	cmp	x0, #0x2
    28f0:	540001c1 	b.ne	2928 <TEE_Realloc+0xa0>  // b.any
/optee/optee_os/lib/libutee/tee_api.c:772
    28f4:	f00000a0 	adrp	x0, 19000 <_DYNAMIC>
    28f8:	f940d400 	ldr	x0, [x0, #424]
    28fc:	f9400014 	ldr	x20, [x0]
    2900:	b4fffdf4 	cbz	x20, 28bc <TEE_Realloc+0x34>
/optee/optee_os/lib/libutee/tee_api.c:774
    2904:	aa1403e4 	mov	x4, x20
    2908:	aa0103e3 	mov	x3, x1
/optee/optee_os/lib/libutee/tee_api.c:782
    290c:	a94153f3 	ldp	x19, x20, [sp, #16]
/optee/optee_os/lib/libutee/tee_api.c:774
    2910:	d2800022 	mov	x2, #0x1                   	// #1
/optee/optee_os/lib/libutee/tee_api.c:782
    2914:	f94013f5 	ldr	x21, [sp, #32]
/optee/optee_os/lib/libutee/tee_api.c:774
    2918:	d2800001 	mov	x1, #0x0                   	// #0
/optee/optee_os/lib/libutee/tee_api.c:782
    291c:	a8c37bfd 	ldp	x29, x30, [sp], #48
/optee/optee_os/lib/libutee/tee_api.c:774
    2920:	d2800000 	mov	x0, #0x0                   	// #0
    2924:	14004107 	b	12d40 <raw_calloc>
addr_is_in_no_share_heap():
/optee/optee_os/lib/libutee/tee_api.c:751
    2928:	d2800021 	mov	x1, #0x1                   	// #1
    292c:	97fffc42 	bl	1a34 <buf_overlaps_no_share_heap>
TEE_Realloc():
/optee/optee_os/lib/libutee/tee_api.c:777
    2930:	72001c1f 	tst	w0, #0xff
    2934:	54000180 	b.eq	2964 <TEE_Realloc+0xdc>  // b.none
/optee/optee_os/lib/libutee/tee_api.c:778
    2938:	f00000a0 	adrp	x0, 19000 <_DYNAMIC>
    293c:	aa1503e3 	mov	x3, x21
/optee/optee_os/lib/libutee/tee_api.c:782
    2940:	f94013f5 	ldr	x21, [sp, #32]
/optee/optee_os/lib/libutee/tee_api.c:778
    2944:	d2800002 	mov	x2, #0x0                   	// #0
    2948:	f940d400 	ldr	x0, [x0, #424]
    294c:	d2800001 	mov	x1, #0x0                   	// #0
    2950:	f9400004 	ldr	x4, [x0]
    2954:	aa1303e0 	mov	x0, x19
/optee/optee_os/lib/libutee/tee_api.c:782
    2958:	a94153f3 	ldp	x19, x20, [sp, #16]
    295c:	a8c37bfd 	ldp	x29, x30, [sp], #48
/optee/optee_os/lib/libutee/tee_api.c:778
    2960:	14004114 	b	12db0 <raw_realloc>
/optee/optee_os/lib/libutee/tee_api.c:781
    2964:	aa1503e1 	mov	x1, x21
    2968:	aa1303e0 	mov	x0, x19
/optee/optee_os/lib/libutee/tee_api.c:782
    296c:	a94153f3 	ldp	x19, x20, [sp, #16]
    2970:	f94013f5 	ldr	x21, [sp, #32]
    2974:	a8c37bfd 	ldp	x29, x30, [sp], #48
/optee/optee_os/lib/libutee/tee_api.c:781
    2978:	1400415a 	b	12ee0 <realloc>

000000000000297c <__GP11_TEE_Realloc>:
__GP11_TEE_Realloc():
/optee/optee_os/lib/libutee/tee_api.c:786
    297c:	2a0103e1 	mov	w1, w1
    2980:	17ffffc2 	b	2888 <TEE_Realloc>

0000000000002984 <TEE_CacheClean>:
TEE_CacheClean():
/optee/optee_os/lib/libutee/tee_api.c:803
    2984:	d2800002 	mov	x2, #0x0                   	// #0
    2988:	14001c2e 	b	9a40 <_utee_cache_operation>

000000000000298c <TEE_CacheFlush>:
TEE_CacheFlush():
/optee/optee_os/lib/libutee/tee_api.c:807
    298c:	d2800022 	mov	x2, #0x1                   	// #1
    2990:	14001c2c 	b	9a40 <_utee_cache_operation>

0000000000002994 <TEE_CacheInvalidate>:
TEE_CacheInvalidate():
/optee/optee_os/lib/libutee/tee_api.c:812
    2994:	d2800042 	mov	x2, #0x2                   	// #2
    2998:	14001c2a 	b	9a40 <_utee_cache_operation>

000000000000299c <__utee_from_attr>:
__utee_from_attr():
/optee/optee_os/lib/libutee/tee_api_objects.c:19
    299c:	2a0203e2 	mov	w2, w2
    29a0:	d2800003 	mov	x3, #0x0                   	// #0
/optee/optee_os/lib/libutee/tee_api_objects.c:19 (discriminator 1)
    29a4:	eb03005f 	cmp	x2, x3
    29a8:	54000048 	b.hi	29b0 <__utee_from_attr+0x14>  // b.pmore
/optee/optee_os/lib/libutee/tee_api_objects.c:29
    29ac:	d65f03c0 	ret
/optee/optee_os/lib/libutee/tee_api_objects.c:20
    29b0:	b9400024 	ldr	w4, [x1]
    29b4:	b9001004 	str	w4, [x0, #16]
/optee/optee_os/lib/libutee/tee_api_objects.c:21
    29b8:	36e80124 	tbz	w4, #29, 29dc <__utee_from_attr+0x40>
/optee/optee_os/lib/libutee/tee_api_objects.c:22
    29bc:	b9400824 	ldr	w4, [x1, #8]
    29c0:	f9000004 	str	x4, [x0]
/optee/optee_os/lib/libutee/tee_api_objects.c:23
    29c4:	b9400c24 	ldr	w4, [x1, #12]
/optee/optee_os/lib/libutee/tee_api_objects.c:19 (discriminator 2)
    29c8:	91000463 	add	x3, x3, #0x1
    29cc:	91006021 	add	x1, x1, #0x18
    29d0:	91006000 	add	x0, x0, #0x18
/optee/optee_os/lib/libutee/tee_api_objects.c:23 (discriminator 2)
    29d4:	f81f0004 	stur	x4, [x0, #-16]
/optee/optee_os/lib/libutee/tee_api_objects.c:19 (discriminator 2)
    29d8:	17fffff3 	b	29a4 <__utee_from_attr+0x8>
/optee/optee_os/lib/libutee/tee_api_objects.c:25
    29dc:	f9400424 	ldr	x4, [x1, #8]
    29e0:	f9000004 	str	x4, [x0]
/optee/optee_os/lib/libutee/tee_api_objects.c:26
    29e4:	f9400824 	ldr	x4, [x1, #16]
    29e8:	17fffff8 	b	29c8 <__utee_from_attr+0x2c>

00000000000029ec <__utee_from_gp11_attr>:
__utee_from_gp11_attr():
/optee/optee_os/lib/libutee/tee_api_objects.c:37
    29ec:	2a0203e2 	mov	w2, w2
    29f0:	d2800003 	mov	x3, #0x0                   	// #0
/optee/optee_os/lib/libutee/tee_api_objects.c:37 (discriminator 1)
    29f4:	eb03005f 	cmp	x2, x3
    29f8:	54000048 	b.hi	2a00 <__utee_from_gp11_attr+0x14>  // b.pmore
/optee/optee_os/lib/libutee/tee_api_objects.c:47
    29fc:	d65f03c0 	ret
/optee/optee_os/lib/libutee/tee_api_objects.c:38
    2a00:	b9400024 	ldr	w4, [x1]
    2a04:	b9001004 	str	w4, [x0, #16]
/optee/optee_os/lib/libutee/tee_api_objects.c:39
    2a08:	36e80124 	tbz	w4, #29, 2a2c <__utee_from_gp11_attr+0x40>
/optee/optee_os/lib/libutee/tee_api_objects.c:40
    2a0c:	b9400824 	ldr	w4, [x1, #8]
    2a10:	f9000004 	str	x4, [x0]
/optee/optee_os/lib/libutee/tee_api_objects.c:41
    2a14:	b9400c24 	ldr	w4, [x1, #12]
/optee/optee_os/lib/libutee/tee_api_objects.c:37 (discriminator 2)
    2a18:	91000463 	add	x3, x3, #0x1
    2a1c:	91006021 	add	x1, x1, #0x18
    2a20:	91006000 	add	x0, x0, #0x18
/optee/optee_os/lib/libutee/tee_api_objects.c:41 (discriminator 2)
    2a24:	f81f0004 	stur	x4, [x0, #-16]
/optee/optee_os/lib/libutee/tee_api_objects.c:37 (discriminator 2)
    2a28:	17fffff3 	b	29f4 <__utee_from_gp11_attr+0x8>
/optee/optee_os/lib/libutee/tee_api_objects.c:43
    2a2c:	f9400424 	ldr	x4, [x1, #8]
    2a30:	f9000004 	str	x4, [x0]
/optee/optee_os/lib/libutee/tee_api_objects.c:44
    2a34:	b9401024 	ldr	w4, [x1, #16]
    2a38:	17fffff8 	b	2a18 <__utee_from_gp11_attr+0x2c>

0000000000002a3c <TEE_GetObjectInfo>:
TEE_GetObjectInfo():
/optee/optee_os/lib/libutee/tee_api_objects.c:57
    2a3c:	a9bb7bfd 	stp	x29, x30, [sp, #-80]!
    2a40:	910003fd 	mov	x29, sp
    2a44:	f9000bf3 	str	x19, [sp, #16]
    2a48:	aa0103f3 	mov	x19, x1
    2a4c:	f00000a1 	adrp	x1, 19000 <_DYNAMIC>
    2a50:	f9409821 	ldr	x1, [x1, #304]
    2a54:	f9400022 	ldr	x2, [x1]
    2a58:	f90027e2 	str	x2, [sp, #72]
    2a5c:	d2800002 	mov	x2, #0x0                   	// #0
/optee/optee_os/lib/libutee/tee_api_objects.c:61
    2a60:	9100a3e1 	add	x1, sp, #0x28
/optee/optee_os/lib/libutee/tee_api_objects.c:58
    2a64:	a902ffff 	stp	xzr, xzr, [sp, #40]
    2a68:	f9001fff 	str	xzr, [sp, #56]
    2a6c:	b90043ff 	str	wzr, [sp, #64]
/optee/optee_os/lib/libutee/tee_api_objects.c:61
    2a70:	94001b97 	bl	98cc <_utee_cryp_obj_get_info>
/optee/optee_os/lib/libutee/tee_api_objects.c:63
    2a74:	34000040 	cbz	w0, 2a7c <TEE_GetObjectInfo+0x40>
/optee/optee_os/lib/libutee/tee_api_objects.c:64
    2a78:	94001853 	bl	8bc4 <TEE_Panic>
/optee/optee_os/lib/libutee/tee_api_objects.c:66
    2a7c:	b9402be1 	ldr	w1, [sp, #40]
    2a80:	528017c0 	mov	w0, #0xbe                  	// #190
    2a84:	72b40000 	movk	w0, #0xa000, lsl #16
    2a88:	6b00003f 	cmp	w1, w0
    2a8c:	540001c1 	b.ne	2ac4 <TEE_GetObjectInfo+0x88>  // b.any
/optee/optee_os/lib/libutee/tee_api_objects.c:71
    2a90:	52800000 	mov	w0, #0x0                   	// #0
/optee/optee_os/lib/libutee/tee_api_objects.c:67
    2a94:	b900067f 	str	wzr, [x19, #4]
/optee/optee_os/lib/libutee/tee_api_objects.c:70
    2a98:	a900fe7f 	stp	xzr, xzr, [x19, #8]
/optee/optee_os/lib/libutee/tee_api_objects.c:71
    2a9c:	f9000e7f 	str	xzr, [x19, #24]
/optee/optee_os/lib/libutee/tee_api_objects.c:82
    2aa0:	f00000a1 	adrp	x1, 19000 <_DYNAMIC>
/optee/optee_os/lib/libutee/tee_api_objects.c:72
    2aa4:	b9002260 	str	w0, [x19, #32]
/optee/optee_os/lib/libutee/tee_api_objects.c:82
    2aa8:	f9409821 	ldr	x1, [x1, #304]
    2aac:	f94027e0 	ldr	x0, [sp, #72]
    2ab0:	f9400022 	ldr	x2, [x1]
    2ab4:	eb020000 	subs	x0, x0, x2
    2ab8:	d2800002 	mov	x2, #0x0                   	// #0
    2abc:	54000180 	b.eq	2aec <TEE_GetObjectInfo+0xb0>  // b.none
    2ac0:	97fff69f 	bl	53c <__stack_chk_fail>
/optee/optee_os/lib/libutee/tee_api_objects.c:74
    2ac4:	f94017e0 	ldr	x0, [sp, #40]
    2ac8:	f9000260 	str	x0, [x19]
/optee/optee_os/lib/libutee/tee_api_objects.c:76
    2acc:	f9401be0 	ldr	x0, [sp, #48]
    2ad0:	f9000660 	str	x0, [x19, #8]
/optee/optee_os/lib/libutee/tee_api_objects.c:78
    2ad4:	b9403be0 	ldr	w0, [sp, #56]
    2ad8:	f9000a60 	str	x0, [x19, #16]
/optee/optee_os/lib/libutee/tee_api_objects.c:79
    2adc:	b9403fe0 	ldr	w0, [sp, #60]
    2ae0:	f9000e60 	str	x0, [x19, #24]
/optee/optee_os/lib/libutee/tee_api_objects.c:80
    2ae4:	b94043e0 	ldr	w0, [sp, #64]
    2ae8:	17ffffee 	b	2aa0 <TEE_GetObjectInfo+0x64>
/optee/optee_os/lib/libutee/tee_api_objects.c:82
    2aec:	f9400bf3 	ldr	x19, [sp, #16]
    2af0:	a8c57bfd 	ldp	x29, x30, [sp], #80
    2af4:	d65f03c0 	ret

0000000000002af8 <__GP11_TEE_GetObjectInfo>:
__GP11_TEE_GetObjectInfo():
/optee/optee_os/lib/libutee/tee_api_objects.c:86
    2af8:	a9bb7bfd 	stp	x29, x30, [sp, #-80]!
    2afc:	910003fd 	mov	x29, sp
    2b00:	f9000bf3 	str	x19, [sp, #16]
    2b04:	aa0103f3 	mov	x19, x1
    2b08:	f00000a1 	adrp	x1, 19000 <_DYNAMIC>
    2b0c:	f9409821 	ldr	x1, [x1, #304]
    2b10:	f9400022 	ldr	x2, [x1]
    2b14:	f90027e2 	str	x2, [sp, #72]
    2b18:	d2800002 	mov	x2, #0x0                   	// #0
/optee/optee_os/lib/libutee/tee_api_objects.c:90
    2b1c:	9100a3e1 	add	x1, sp, #0x28
/optee/optee_os/lib/libutee/tee_api_objects.c:87
    2b20:	a902ffff 	stp	xzr, xzr, [sp, #40]
    2b24:	f9001fff 	str	xzr, [sp, #56]
    2b28:	b90043ff 	str	wzr, [sp, #64]
/optee/optee_os/lib/libutee/tee_api_objects.c:90
    2b2c:	94001b68 	bl	98cc <_utee_cryp_obj_get_info>
/optee/optee_os/lib/libutee/tee_api_objects.c:92
    2b30:	34000040 	cbz	w0, 2b38 <__GP11_TEE_GetObjectInfo+0x40>
/optee/optee_os/lib/libutee/tee_api_objects.c:93
    2b34:	94001824 	bl	8bc4 <TEE_Panic>
/optee/optee_os/lib/libutee/tee_api_objects.c:95
    2b38:	b9402be0 	ldr	w0, [sp, #40]
    2b3c:	528017c1 	mov	w1, #0xbe                  	// #190
    2b40:	72b40001 	movk	w1, #0xa000, lsl #16
    2b44:	6b01001f 	cmp	w0, w1
    2b48:	540001c1 	b.ne	2b80 <__GP11_TEE_GetObjectInfo+0x88>  // b.any
/optee/optee_os/lib/libutee/tee_api_objects.c:96
    2b4c:	52800000 	mov	w0, #0x0                   	// #0
/optee/optee_os/lib/libutee/tee_api_objects.c:97
    2b50:	2900fe7f 	stp	wzr, wzr, [x19, #4]
/optee/optee_os/lib/libutee/tee_api_objects.c:99
    2b54:	2901fe7f 	stp	wzr, wzr, [x19, #12]
/optee/optee_os/lib/libutee/tee_api_objects.c:100
    2b58:	b900167f 	str	wzr, [x19, #20]
/optee/optee_os/lib/libutee/tee_api_objects.c:111
    2b5c:	f00000a1 	adrp	x1, 19000 <_DYNAMIC>
/optee/optee_os/lib/libutee/tee_api_objects.c:101
    2b60:	b9001a60 	str	w0, [x19, #24]
/optee/optee_os/lib/libutee/tee_api_objects.c:111
    2b64:	f9409821 	ldr	x1, [x1, #304]
    2b68:	f94027e0 	ldr	x0, [sp, #72]
    2b6c:	f9400022 	ldr	x2, [x1]
    2b70:	eb020000 	subs	x0, x0, x2
    2b74:	d2800002 	mov	x2, #0x0                   	// #0
    2b78:	540001e0 	b.eq	2bb4 <__GP11_TEE_GetObjectInfo+0xbc>  // b.none
    2b7c:	97fff670 	bl	53c <__stack_chk_fail>
/optee/optee_os/lib/libutee/tee_api_objects.c:103
    2b80:	b9000260 	str	w0, [x19]
/optee/optee_os/lib/libutee/tee_api_objects.c:104
    2b84:	b9402fe0 	ldr	w0, [sp, #44]
    2b88:	b9000660 	str	w0, [x19, #4]
/optee/optee_os/lib/libutee/tee_api_objects.c:105
    2b8c:	b94033e0 	ldr	w0, [sp, #48]
    2b90:	b9000a60 	str	w0, [x19, #8]
/optee/optee_os/lib/libutee/tee_api_objects.c:106
    2b94:	b94037e0 	ldr	w0, [sp, #52]
    2b98:	b9000e60 	str	w0, [x19, #12]
/optee/optee_os/lib/libutee/tee_api_objects.c:107
    2b9c:	b9403be0 	ldr	w0, [sp, #56]
    2ba0:	b9001260 	str	w0, [x19, #16]
/optee/optee_os/lib/libutee/tee_api_objects.c:108
    2ba4:	b9403fe0 	ldr	w0, [sp, #60]
    2ba8:	b9001660 	str	w0, [x19, #20]
/optee/optee_os/lib/libutee/tee_api_objects.c:109
    2bac:	b94043e0 	ldr	w0, [sp, #64]
    2bb0:	17ffffeb 	b	2b5c <__GP11_TEE_GetObjectInfo+0x64>
/optee/optee_os/lib/libutee/tee_api_objects.c:111
    2bb4:	f9400bf3 	ldr	x19, [sp, #16]
    2bb8:	a8c57bfd 	ldp	x29, x30, [sp], #80
    2bbc:	d65f03c0 	ret

0000000000002bc0 <TEE_GetObjectInfo1>:
TEE_GetObjectInfo1():
/optee/optee_os/lib/libutee/tee_api_objects.c:115
    2bc0:	a9bb7bfd 	stp	x29, x30, [sp, #-80]!
    2bc4:	f00000a2 	adrp	x2, 19000 <_DYNAMIC>
    2bc8:	910003fd 	mov	x29, sp
    2bcc:	f9409842 	ldr	x2, [x2, #304]
    2bd0:	a90153f3 	stp	x19, x20, [sp, #16]
    2bd4:	aa0103f3 	mov	x19, x1
    2bd8:	f9400041 	ldr	x1, [x2]
    2bdc:	f90027e1 	str	x1, [sp, #72]
    2be0:	d2800001 	mov	x1, #0x0                   	// #0
/optee/optee_os/lib/libutee/tee_api_objects.c:116
    2be4:	a902ffff 	stp	xzr, xzr, [sp, #40]
/optee/optee_os/lib/libutee/tee_api_objects.c:119
    2be8:	9100a3e1 	add	x1, sp, #0x28
/optee/optee_os/lib/libutee/tee_api_objects.c:116
    2bec:	f9001fff 	str	xzr, [sp, #56]
    2bf0:	b90043ff 	str	wzr, [sp, #64]
/optee/optee_os/lib/libutee/tee_api_objects.c:119
    2bf4:	94001b36 	bl	98cc <_utee_cryp_obj_get_info>
/optee/optee_os/lib/libutee/tee_api_objects.c:121
    2bf8:	52800021 	mov	w1, #0x1                   	// #1
/optee/optee_os/lib/libutee/tee_api_objects.c:122
    2bfc:	121e7802 	and	w2, w0, #0xfffffffd
/optee/optee_os/lib/libutee/tee_api_objects.c:121
    2c00:	7100001f 	cmp	w0, #0x0
    2c04:	72be0201 	movk	w1, #0xf010, lsl #16
/optee/optee_os/lib/libutee/tee_api_objects.c:119
    2c08:	2a0003f4 	mov	w20, w0
/optee/optee_os/lib/libutee/tee_api_objects.c:121
    2c0c:	7a411044 	ccmp	w2, w1, #0x4, ne  // ne = any
    2c10:	54000040 	b.eq	2c18 <TEE_GetObjectInfo1+0x58>  // b.none
/optee/optee_os/lib/libutee/tee_api_objects.c:124
    2c14:	940017ec 	bl	8bc4 <TEE_Panic>
/optee/optee_os/lib/libutee/tee_api_objects.c:126
    2c18:	f94017e0 	ldr	x0, [sp, #40]
    2c1c:	f9000260 	str	x0, [x19]
/optee/optee_os/lib/libutee/tee_api_objects.c:128
    2c20:	f9401be0 	ldr	x0, [sp, #48]
/optee/optee_os/lib/libutee/tee_api_objects.c:135
    2c24:	f00000a2 	adrp	x2, 19000 <_DYNAMIC>
/optee/optee_os/lib/libutee/tee_api_objects.c:128
    2c28:	f9000660 	str	x0, [x19, #8]
/optee/optee_os/lib/libutee/tee_api_objects.c:130
    2c2c:	b9403be0 	ldr	w0, [sp, #56]
    2c30:	f9000a60 	str	x0, [x19, #16]
/optee/optee_os/lib/libutee/tee_api_objects.c:131
    2c34:	b9403fe0 	ldr	w0, [sp, #60]
/optee/optee_os/lib/libutee/tee_api_objects.c:135
    2c38:	f9409842 	ldr	x2, [x2, #304]
/optee/optee_os/lib/libutee/tee_api_objects.c:131
    2c3c:	f9000e60 	str	x0, [x19, #24]
/optee/optee_os/lib/libutee/tee_api_objects.c:132
    2c40:	b94043e0 	ldr	w0, [sp, #64]
    2c44:	b9002260 	str	w0, [x19, #32]
/optee/optee_os/lib/libutee/tee_api_objects.c:135
    2c48:	f94027e0 	ldr	x0, [sp, #72]
    2c4c:	f9400041 	ldr	x1, [x2]
    2c50:	eb010000 	subs	x0, x0, x1
    2c54:	d2800001 	mov	x1, #0x0                   	// #0
    2c58:	54000040 	b.eq	2c60 <TEE_GetObjectInfo1+0xa0>  // b.none
    2c5c:	97fff638 	bl	53c <__stack_chk_fail>
    2c60:	2a1403e0 	mov	w0, w20
    2c64:	a94153f3 	ldp	x19, x20, [sp, #16]
    2c68:	a8c57bfd 	ldp	x29, x30, [sp], #80
    2c6c:	d65f03c0 	ret

0000000000002c70 <__GP11_TEE_GetObjectInfo1>:
__GP11_TEE_GetObjectInfo1():
/optee/optee_os/lib/libutee/tee_api_objects.c:139
    2c70:	a9bb7bfd 	stp	x29, x30, [sp, #-80]!
    2c74:	910003fd 	mov	x29, sp
    2c78:	a90153f3 	stp	x19, x20, [sp, #16]
    2c7c:	aa0103f3 	mov	x19, x1
    2c80:	f00000a1 	adrp	x1, 19000 <_DYNAMIC>
    2c84:	f9409821 	ldr	x1, [x1, #304]
    2c88:	f9400022 	ldr	x2, [x1]
    2c8c:	f90027e2 	str	x2, [sp, #72]
    2c90:	d2800002 	mov	x2, #0x0                   	// #0
/optee/optee_os/lib/libutee/tee_api_objects.c:143
    2c94:	9100a3e1 	add	x1, sp, #0x28
/optee/optee_os/lib/libutee/tee_api_objects.c:140
    2c98:	a902ffff 	stp	xzr, xzr, [sp, #40]
    2c9c:	f9001fff 	str	xzr, [sp, #56]
    2ca0:	b90043ff 	str	wzr, [sp, #64]
/optee/optee_os/lib/libutee/tee_api_objects.c:143
    2ca4:	94001b0a 	bl	98cc <_utee_cryp_obj_get_info>
/optee/optee_os/lib/libutee/tee_api_objects.c:145
    2ca8:	52800021 	mov	w1, #0x1                   	// #1
/optee/optee_os/lib/libutee/tee_api_objects.c:146
    2cac:	121e7802 	and	w2, w0, #0xfffffffd
/optee/optee_os/lib/libutee/tee_api_objects.c:145
    2cb0:	7100001f 	cmp	w0, #0x0
    2cb4:	72be0201 	movk	w1, #0xf010, lsl #16
/optee/optee_os/lib/libutee/tee_api_objects.c:143
    2cb8:	2a0003f4 	mov	w20, w0
/optee/optee_os/lib/libutee/tee_api_objects.c:145
    2cbc:	7a411044 	ccmp	w2, w1, #0x4, ne  // ne = any
    2cc0:	54000040 	b.eq	2cc8 <__GP11_TEE_GetObjectInfo1+0x58>  // b.none
/optee/optee_os/lib/libutee/tee_api_objects.c:148
    2cc4:	940017c0 	bl	8bc4 <TEE_Panic>
/optee/optee_os/lib/libutee/tee_api_objects.c:150
    2cc8:	b9402be0 	ldr	w0, [sp, #40]
/optee/optee_os/lib/libutee/tee_api_objects.c:159
    2ccc:	f00000a1 	adrp	x1, 19000 <_DYNAMIC>
/optee/optee_os/lib/libutee/tee_api_objects.c:150
    2cd0:	b9000260 	str	w0, [x19]
/optee/optee_os/lib/libutee/tee_api_objects.c:151
    2cd4:	b9402fe0 	ldr	w0, [sp, #44]
    2cd8:	b9000660 	str	w0, [x19, #4]
/optee/optee_os/lib/libutee/tee_api_objects.c:152
    2cdc:	b94033e0 	ldr	w0, [sp, #48]
    2ce0:	b9000a60 	str	w0, [x19, #8]
/optee/optee_os/lib/libutee/tee_api_objects.c:153
    2ce4:	b94037e0 	ldr	w0, [sp, #52]
    2ce8:	b9000e60 	str	w0, [x19, #12]
/optee/optee_os/lib/libutee/tee_api_objects.c:154
    2cec:	b9403be0 	ldr	w0, [sp, #56]
    2cf0:	b9001260 	str	w0, [x19, #16]
/optee/optee_os/lib/libutee/tee_api_objects.c:155
    2cf4:	b9403fe0 	ldr	w0, [sp, #60]
/optee/optee_os/lib/libutee/tee_api_objects.c:159
    2cf8:	f9409821 	ldr	x1, [x1, #304]
/optee/optee_os/lib/libutee/tee_api_objects.c:155
    2cfc:	b9001660 	str	w0, [x19, #20]
/optee/optee_os/lib/libutee/tee_api_objects.c:156
    2d00:	b94043e0 	ldr	w0, [sp, #64]
    2d04:	b9001a60 	str	w0, [x19, #24]
/optee/optee_os/lib/libutee/tee_api_objects.c:159
    2d08:	f94027e0 	ldr	x0, [sp, #72]
    2d0c:	f9400022 	ldr	x2, [x1]
    2d10:	eb020000 	subs	x0, x0, x2
    2d14:	d2800002 	mov	x2, #0x0                   	// #0
    2d18:	54000040 	b.eq	2d20 <__GP11_TEE_GetObjectInfo1+0xb0>  // b.none
    2d1c:	97fff608 	bl	53c <__stack_chk_fail>
    2d20:	2a1403e0 	mov	w0, w20
    2d24:	a94153f3 	ldp	x19, x20, [sp, #16]
    2d28:	a8c57bfd 	ldp	x29, x30, [sp], #80
    2d2c:	d65f03c0 	ret

0000000000002d30 <TEE_RestrictObjectUsage1>:
TEE_RestrictObjectUsage1():
/optee/optee_os/lib/libutee/tee_api_objects.c:183
    2d30:	a9be7bfd 	stp	x29, x30, [sp, #-32]!
/optee/optee_os/lib/libutee/tee_api_objects.c:186
    2d34:	2a0103e1 	mov	w1, w1
/optee/optee_os/lib/libutee/tee_api_objects.c:183
    2d38:	910003fd 	mov	x29, sp
    2d3c:	f9000bf3 	str	x19, [sp, #16]
/optee/optee_os/lib/libutee/tee_api_objects.c:186
    2d40:	94001ae6 	bl	98d8 <_utee_cryp_obj_restrict_usage>
/optee/optee_os/lib/libutee/tee_api_objects.c:189
    2d44:	52800021 	mov	w1, #0x1                   	// #1
/optee/optee_os/lib/libutee/tee_api_objects.c:190
    2d48:	121e7802 	and	w2, w0, #0xfffffffd
/optee/optee_os/lib/libutee/tee_api_objects.c:189
    2d4c:	7100001f 	cmp	w0, #0x0
    2d50:	72be0201 	movk	w1, #0xf010, lsl #16
/optee/optee_os/lib/libutee/tee_api_objects.c:186
    2d54:	2a0003f3 	mov	w19, w0
/optee/optee_os/lib/libutee/tee_api_objects.c:189
    2d58:	7a411044 	ccmp	w2, w1, #0x4, ne  // ne = any
    2d5c:	54000040 	b.eq	2d64 <TEE_RestrictObjectUsage1+0x34>  // b.none
/optee/optee_os/lib/libutee/tee_api_objects.c:192
    2d60:	94001799 	bl	8bc4 <TEE_Panic>
/optee/optee_os/lib/libutee/tee_api_objects.c:195
    2d64:	2a1303e0 	mov	w0, w19
    2d68:	f9400bf3 	ldr	x19, [sp, #16]
    2d6c:	a8c27bfd 	ldp	x29, x30, [sp], #32
    2d70:	d65f03c0 	ret

0000000000002d74 <TEE_RestrictObjectUsage>:
TEE_RestrictObjectUsage():
/optee/optee_os/lib/libutee/tee_api_objects.c:168
    2d74:	a9bb7bfd 	stp	x29, x30, [sp, #-80]!
    2d78:	f00000a2 	adrp	x2, 19000 <_DYNAMIC>
    2d7c:	910003fd 	mov	x29, sp
    2d80:	f9409842 	ldr	x2, [x2, #304]
    2d84:	a90153f3 	stp	x19, x20, [sp, #16]
    2d88:	2a0103f4 	mov	w20, w1
    2d8c:	f9400041 	ldr	x1, [x2]
    2d90:	f90027e1 	str	x1, [sp, #72]
    2d94:	d2800001 	mov	x1, #0x0                   	// #0
    2d98:	aa0003f3 	mov	x19, x0
/optee/optee_os/lib/libutee/tee_api_objects.c:172
    2d9c:	9100a3e1 	add	x1, sp, #0x28
/optee/optee_os/lib/libutee/tee_api_objects.c:169
    2da0:	a902ffff 	stp	xzr, xzr, [sp, #40]
    2da4:	f9001fff 	str	xzr, [sp, #56]
    2da8:	b90043ff 	str	wzr, [sp, #64]
/optee/optee_os/lib/libutee/tee_api_objects.c:172
    2dac:	94001ac8 	bl	98cc <_utee_cryp_obj_get_info>
/optee/optee_os/lib/libutee/tee_api_objects.c:173
    2db0:	b9402be1 	ldr	w1, [sp, #40]
    2db4:	528017c0 	mov	w0, #0xbe                  	// #190
    2db8:	72b40000 	movk	w0, #0xa000, lsl #16
    2dbc:	6b00003f 	cmp	w1, w0
    2dc0:	540000c0 	b.eq	2dd8 <TEE_RestrictObjectUsage+0x64>  // b.none
/optee/optee_os/lib/libutee/tee_api_objects.c:176
    2dc4:	2a1403e1 	mov	w1, w20
    2dc8:	aa1303e0 	mov	x0, x19
    2dcc:	97ffffd9 	bl	2d30 <TEE_RestrictObjectUsage1>
/optee/optee_os/lib/libutee/tee_api_objects.c:178
    2dd0:	34000040 	cbz	w0, 2dd8 <TEE_RestrictObjectUsage+0x64>
/optee/optee_os/lib/libutee/tee_api_objects.c:179
    2dd4:	9400177c 	bl	8bc4 <TEE_Panic>
/optee/optee_os/lib/libutee/tee_api_objects.c:180
    2dd8:	f00000a2 	adrp	x2, 19000 <_DYNAMIC>
    2ddc:	f9409842 	ldr	x2, [x2, #304]
    2de0:	f94027e0 	ldr	x0, [sp, #72]
    2de4:	f9400041 	ldr	x1, [x2]
    2de8:	eb010000 	subs	x0, x0, x1
    2dec:	d2800001 	mov	x1, #0x0                   	// #0
    2df0:	54000040 	b.eq	2df8 <TEE_RestrictObjectUsage+0x84>  // b.none
    2df4:	97fff5d2 	bl	53c <__stack_chk_fail>
    2df8:	a94153f3 	ldp	x19, x20, [sp, #16]
    2dfc:	a8c57bfd 	ldp	x29, x30, [sp], #80
    2e00:	d65f03c0 	ret

0000000000002e04 <TEE_GetObjectBufferAttribute>:
TEE_GetObjectBufferAttribute():
/optee/optee_os/lib/libutee/tee_api_objects.c:200
    2e04:	a9b97bfd 	stp	x29, x30, [sp, #-112]!
    2e08:	f00000a4 	adrp	x4, 19000 <_DYNAMIC>
    2e0c:	910003fd 	mov	x29, sp
    2e10:	f9409884 	ldr	x4, [x4, #304]
    2e14:	a90153f3 	stp	x19, x20, [sp, #16]
    2e18:	aa0303f4 	mov	x20, x3
    2e1c:	a9025bf5 	stp	x21, x22, [sp, #32]
    2e20:	aa0003f5 	mov	x21, x0
    2e24:	2a0103f6 	mov	w22, w1
    2e28:	f9001bf7 	str	x23, [sp, #48]
/optee/optee_os/lib/libutee/tee_api_objects.c:205
    2e2c:	d2800101 	mov	x1, #0x8                   	// #8
/optee/optee_os/lib/libutee/tee_api_objects.c:200
    2e30:	aa0203f7 	mov	x23, x2
    2e34:	f9400080 	ldr	x0, [x4]
    2e38:	f90037e0 	str	x0, [sp, #104]
    2e3c:	d2800000 	mov	x0, #0x0                   	// #0
/optee/optee_os/lib/libutee/tee_api_objects.c:201
    2e40:	a9047fff 	stp	xzr, xzr, [sp, #64]
/optee/optee_os/lib/libutee/tee_api_objects.c:205
    2e44:	aa0303e0 	mov	x0, x3
/optee/optee_os/lib/libutee/tee_api_objects.c:201
    2e48:	a9057fff 	stp	xzr, xzr, [sp, #80]
    2e4c:	b90063ff 	str	wzr, [sp, #96]
/optee/optee_os/lib/libutee/tee_api_objects.c:205
    2e50:	940017cd 	bl	8d84 <__utee_check_inout_annotation>
/optee/optee_os/lib/libutee/tee_api_objects.c:207
    2e54:	910123e1 	add	x1, sp, #0x48
    2e58:	aa1503e0 	mov	x0, x21
    2e5c:	94001a9c 	bl	98cc <_utee_cryp_obj_get_info>
    2e60:	2a0003f3 	mov	w19, w0
/optee/optee_os/lib/libutee/tee_api_objects.c:208
    2e64:	35000180 	cbnz	w0, 2e94 <TEE_GetObjectBufferAttribute+0x90>
/optee/optee_os/lib/libutee/tee_api_objects.c:212
    2e68:	37e80416 	tbnz	w22, #29, 2ee8 <TEE_GetObjectBufferAttribute+0xe4>
/optee/optee_os/lib/libutee/tee_api_objects.c:217
    2e6c:	f9400280 	ldr	x0, [x20]
/optee/optee_os/lib/libutee/tee_api_objects.c:218
    2e70:	910103e3 	add	x3, sp, #0x40
    2e74:	aa1703e2 	mov	x2, x23
    2e78:	2a1603e1 	mov	w1, w22
/optee/optee_os/lib/libutee/tee_api_objects.c:217
    2e7c:	f90023e0 	str	x0, [sp, #64]
/optee/optee_os/lib/libutee/tee_api_objects.c:218
    2e80:	aa1503e0 	mov	x0, x21
    2e84:	94001a98 	bl	98e4 <_utee_cryp_obj_get_attr>
    2e88:	2a0003f3 	mov	w19, w0
/optee/optee_os/lib/libutee/tee_api_objects.c:220
    2e8c:	f94023e0 	ldr	x0, [sp, #64]
    2e90:	f9000280 	str	x0, [x20]
/optee/optee_os/lib/libutee/tee_api_objects.c:223
    2e94:	7100027f 	cmp	w19, #0x0
    2e98:	129ffee0 	mov	w0, #0xffff0008            	// #-65528
    2e9c:	7a401264 	ccmp	w19, w0, #0x4, ne  // ne = any
    2ea0:	54000140 	b.eq	2ec8 <TEE_GetObjectBufferAttribute+0xc4>  // b.none
/optee/optee_os/lib/libutee/tee_api_objects.c:226
    2ea4:	121e7a61 	and	w1, w19, #0xfffffffd
/optee/optee_os/lib/libutee/tee_api_objects.c:225
    2ea8:	52800020 	mov	w0, #0x1                   	// #1
    2eac:	72be0200 	movk	w0, #0xf010, lsl #16
    2eb0:	6b00003f 	cmp	w1, w0
    2eb4:	129ffde0 	mov	w0, #0xffff0010            	// #-65520
    2eb8:	7a401264 	ccmp	w19, w0, #0x4, ne  // ne = any
    2ebc:	54000060 	b.eq	2ec8 <TEE_GetObjectBufferAttribute+0xc4>  // b.none
/optee/optee_os/lib/libutee/tee_api_objects.c:228
    2ec0:	2a1303e0 	mov	w0, w19
    2ec4:	94001740 	bl	8bc4 <TEE_Panic>
/optee/optee_os/lib/libutee/tee_api_objects.c:231
    2ec8:	f00000a4 	adrp	x4, 19000 <_DYNAMIC>
    2ecc:	f9409884 	ldr	x4, [x4, #304]
    2ed0:	f94037e0 	ldr	x0, [sp, #104]
    2ed4:	f9400081 	ldr	x1, [x4]
    2ed8:	eb010000 	subs	x0, x0, x1
    2edc:	d2800001 	mov	x1, #0x0                   	// #0
    2ee0:	54000080 	b.eq	2ef0 <TEE_GetObjectBufferAttribute+0xec>  // b.none
    2ee4:	97fff596 	bl	53c <__stack_chk_fail>
/optee/optee_os/lib/libutee/tee_api_objects.c:213
    2ee8:	129fff33 	mov	w19, #0xffff0006            	// #-65530
    2eec:	17ffffea 	b	2e94 <TEE_GetObjectBufferAttribute+0x90>
/optee/optee_os/lib/libutee/tee_api_objects.c:231
    2ef0:	2a1303e0 	mov	w0, w19
    2ef4:	a94153f3 	ldp	x19, x20, [sp, #16]
    2ef8:	a9425bf5 	ldp	x21, x22, [sp, #32]
    2efc:	f9401bf7 	ldr	x23, [sp, #48]
    2f00:	a8c77bfd 	ldp	x29, x30, [sp], #112
    2f04:	d65f03c0 	ret

0000000000002f08 <__GP11_TEE_GetObjectBufferAttribute>:
__GP11_TEE_GetObjectBufferAttribute():
/optee/optee_os/lib/libutee/tee_api_objects.c:236
    2f08:	a9bb7bfd 	stp	x29, x30, [sp, #-80]!
    2f0c:	910003fd 	mov	x29, sp
    2f10:	a90153f3 	stp	x19, x20, [sp, #16]
    2f14:	f00000b4 	adrp	x20, 19000 <_DYNAMIC>
    2f18:	aa0303f3 	mov	x19, x3
    2f1c:	a9025bf5 	stp	x21, x22, [sp, #32]
    2f20:	aa0003f5 	mov	x21, x0
    2f24:	2a0103f6 	mov	w22, w1
    2f28:	f9409a80 	ldr	x0, [x20, #304]
    2f2c:	f9001bf7 	str	x23, [sp, #48]
    2f30:	aa0203f7 	mov	x23, x2
    2f34:	f9400001 	ldr	x1, [x0]
    2f38:	f90027e1 	str	x1, [sp, #72]
    2f3c:	d2800001 	mov	x1, #0x0                   	// #0
/optee/optee_os/lib/libutee/tee_api_objects.c:240
    2f40:	aa0303e0 	mov	x0, x3
    2f44:	d2800081 	mov	x1, #0x4                   	// #4
/optee/optee_os/lib/libutee/tee_api_objects.c:238
    2f48:	f90023ff 	str	xzr, [sp, #64]
/optee/optee_os/lib/libutee/tee_api_objects.c:240
    2f4c:	9400178e 	bl	8d84 <__utee_check_inout_annotation>
/optee/optee_os/lib/libutee/tee_api_objects.c:241
    2f50:	b9400260 	ldr	w0, [x19]
/optee/optee_os/lib/libutee/tee_api_objects.c:242
    2f54:	aa1703e2 	mov	x2, x23
    2f58:	2a1603e1 	mov	w1, w22
    2f5c:	910103e3 	add	x3, sp, #0x40
/optee/optee_os/lib/libutee/tee_api_objects.c:241
    2f60:	f90023e0 	str	x0, [sp, #64]
/optee/optee_os/lib/libutee/tee_api_objects.c:242
    2f64:	aa1503e0 	mov	x0, x21
    2f68:	97ffffa7 	bl	2e04 <TEE_GetObjectBufferAttribute>
/optee/optee_os/lib/libutee/tee_api_objects.c:245
    2f6c:	f9409a94 	ldr	x20, [x20, #304]
/optee/optee_os/lib/libutee/tee_api_objects.c:243
    2f70:	f94023e1 	ldr	x1, [sp, #64]
    2f74:	b9000261 	str	w1, [x19]
/optee/optee_os/lib/libutee/tee_api_objects.c:245
    2f78:	f94027e1 	ldr	x1, [sp, #72]
    2f7c:	f9400282 	ldr	x2, [x20]
    2f80:	eb020021 	subs	x1, x1, x2
    2f84:	d2800002 	mov	x2, #0x0                   	// #0
    2f88:	54000040 	b.eq	2f90 <__GP11_TEE_GetObjectBufferAttribute+0x88>  // b.none
    2f8c:	97fff56c 	bl	53c <__stack_chk_fail>
    2f90:	a94153f3 	ldp	x19, x20, [sp, #16]
    2f94:	a9425bf5 	ldp	x21, x22, [sp, #32]
    2f98:	f9401bf7 	ldr	x23, [sp, #48]
    2f9c:	a8c57bfd 	ldp	x29, x30, [sp], #80
    2fa0:	d65f03c0 	ret

0000000000002fa4 <TEE_GetObjectValueAttribute>:
TEE_GetObjectValueAttribute():
/optee/optee_os/lib/libutee/tee_api_objects.c:250
    2fa4:	a9b87bfd 	stp	x29, x30, [sp, #-128]!
    2fa8:	f00000a4 	adrp	x4, 19000 <_DYNAMIC>
    2fac:	910003fd 	mov	x29, sp
    2fb0:	f9409884 	ldr	x4, [x4, #304]
    2fb4:	a90153f3 	stp	x19, x20, [sp, #16]
    2fb8:	aa0303f4 	mov	x20, x3
    2fbc:	a9025bf5 	stp	x21, x22, [sp, #32]
    2fc0:	aa0003f6 	mov	x22, x0
    2fc4:	aa0203f5 	mov	x21, x2
    2fc8:	f9001bf7 	str	x23, [sp, #48]
    2fcc:	2a0103f7 	mov	w23, w1
    2fd0:	f9400080 	ldr	x0, [x4]
    2fd4:	f9003fe0 	str	x0, [sp, #120]
    2fd8:	d2800000 	mov	x0, #0x0                   	// #0
/optee/optee_os/lib/libutee/tee_api_objects.c:251
    2fdc:	a9057fff 	stp	xzr, xzr, [sp, #80]
/optee/optee_os/lib/libutee/tee_api_objects.c:254
    2fe0:	d2800100 	mov	x0, #0x8                   	// #8
    2fe4:	f90027e0 	str	x0, [sp, #72]
/optee/optee_os/lib/libutee/tee_api_objects.c:251
    2fe8:	f90033ff 	str	xzr, [sp, #96]
    2fec:	b9006bff 	str	wzr, [sp, #104]
/optee/optee_os/lib/libutee/tee_api_objects.c:256
    2ff0:	b4000082 	cbz	x2, 3000 <TEE_GetObjectValueAttribute+0x5c>
/optee/optee_os/lib/libutee/tee_api_objects.c:257
    2ff4:	aa0203e0 	mov	x0, x2
    2ff8:	d2800081 	mov	x1, #0x4                   	// #4
    2ffc:	94001750 	bl	8d3c <__utee_check_out_annotation>
/optee/optee_os/lib/libutee/tee_api_objects.c:258
    3000:	b4000094 	cbz	x20, 3010 <TEE_GetObjectValueAttribute+0x6c>
/optee/optee_os/lib/libutee/tee_api_objects.c:259
    3004:	aa1403e0 	mov	x0, x20
    3008:	d2800081 	mov	x1, #0x4                   	// #4
    300c:	9400174c 	bl	8d3c <__utee_check_out_annotation>
/optee/optee_os/lib/libutee/tee_api_objects.c:261
    3010:	910143e1 	add	x1, sp, #0x50
    3014:	aa1603e0 	mov	x0, x22
    3018:	94001a2d 	bl	98cc <_utee_cryp_obj_get_info>
    301c:	2a0003f3 	mov	w19, w0
/optee/optee_os/lib/libutee/tee_api_objects.c:262
    3020:	35000100 	cbnz	w0, 3040 <TEE_GetObjectValueAttribute+0x9c>
/optee/optee_os/lib/libutee/tee_api_objects.c:266
    3024:	36e804d7 	tbz	w23, #29, 30bc <TEE_GetObjectValueAttribute+0x118>
/optee/optee_os/lib/libutee/tee_api_objects.c:271
    3028:	910123e3 	add	x3, sp, #0x48
    302c:	9101c3e2 	add	x2, sp, #0x70
    3030:	2a1703e1 	mov	w1, w23
    3034:	aa1603e0 	mov	x0, x22
    3038:	94001a2b 	bl	98e4 <_utee_cryp_obj_get_attr>
    303c:	2a0003f3 	mov	w19, w0
/optee/optee_os/lib/libutee/tee_api_objects.c:275
    3040:	7100027f 	cmp	w19, #0x0
    3044:	129ffee0 	mov	w0, #0xffff0008            	// #-65528
    3048:	7a401264 	ccmp	w19, w0, #0x4, ne  // ne = any
    304c:	54000100 	b.eq	306c <TEE_GetObjectValueAttribute+0xc8>  // b.none
/optee/optee_os/lib/libutee/tee_api_objects.c:277
    3050:	52800020 	mov	w0, #0x1                   	// #1
    3054:	121e7a61 	and	w1, w19, #0xfffffffd
    3058:	72be0200 	movk	w0, #0xf010, lsl #16
    305c:	6b00003f 	cmp	w1, w0
    3060:	54000060 	b.eq	306c <TEE_GetObjectValueAttribute+0xc8>  // b.none
/optee/optee_os/lib/libutee/tee_api_objects.c:279
    3064:	2a1303e0 	mov	w0, w19
    3068:	940016d7 	bl	8bc4 <TEE_Panic>
/optee/optee_os/lib/libutee/tee_api_objects.c:281
    306c:	f94027e0 	ldr	x0, [sp, #72]
    3070:	f100201f 	cmp	x0, #0x8
    3074:	54000060 	b.eq	3080 <TEE_GetObjectValueAttribute+0xdc>  // b.none
/optee/optee_os/lib/libutee/tee_api_objects.c:282
    3078:	52800000 	mov	w0, #0x0                   	// #0
    307c:	940016d2 	bl	8bc4 <TEE_Panic>
/optee/optee_os/lib/libutee/tee_api_objects.c:284
    3080:	350000f3 	cbnz	w19, 309c <TEE_GetObjectValueAttribute+0xf8>
/optee/optee_os/lib/libutee/tee_api_objects.c:285
    3084:	b4000075 	cbz	x21, 3090 <TEE_GetObjectValueAttribute+0xec>
/optee/optee_os/lib/libutee/tee_api_objects.c:286
    3088:	b94073e0 	ldr	w0, [sp, #112]
    308c:	b90002a0 	str	w0, [x21]
/optee/optee_os/lib/libutee/tee_api_objects.c:287
    3090:	b4000074 	cbz	x20, 309c <TEE_GetObjectValueAttribute+0xf8>
/optee/optee_os/lib/libutee/tee_api_objects.c:288
    3094:	b94077e0 	ldr	w0, [sp, #116]
    3098:	b9000280 	str	w0, [x20]
/optee/optee_os/lib/libutee/tee_api_objects.c:292
    309c:	d00000a4 	adrp	x4, 19000 <_DYNAMIC>
    30a0:	f9409884 	ldr	x4, [x4, #304]
    30a4:	f9403fe0 	ldr	x0, [sp, #120]
    30a8:	f9400081 	ldr	x1, [x4]
    30ac:	eb010000 	subs	x0, x0, x1
    30b0:	d2800001 	mov	x1, #0x0                   	// #0
    30b4:	54000080 	b.eq	30c4 <TEE_GetObjectValueAttribute+0x120>  // b.none
    30b8:	97fff521 	bl	53c <__stack_chk_fail>
/optee/optee_os/lib/libutee/tee_api_objects.c:267
    30bc:	129fff33 	mov	w19, #0xffff0006            	// #-65530
    30c0:	17ffffe0 	b	3040 <TEE_GetObjectValueAttribute+0x9c>
/optee/optee_os/lib/libutee/tee_api_objects.c:292
    30c4:	2a1303e0 	mov	w0, w19
    30c8:	a94153f3 	ldp	x19, x20, [sp, #16]
    30cc:	a9425bf5 	ldp	x21, x22, [sp, #32]
    30d0:	f9401bf7 	ldr	x23, [sp, #48]
    30d4:	a8c87bfd 	ldp	x29, x30, [sp], #128
    30d8:	d65f03c0 	ret

00000000000030dc <TEE_CloseObject>:
TEE_CloseObject():
/optee/optee_os/lib/libutee/tee_api_objects.c:298
    30dc:	b4000120 	cbz	x0, 3100 <TEE_CloseObject+0x24>
/optee/optee_os/lib/libutee/tee_api_objects.c:295
    30e0:	a9bf7bfd 	stp	x29, x30, [sp, #-16]!
    30e4:	910003fd 	mov	x29, sp
/optee/optee_os/lib/libutee/tee_api_objects.c:301
    30e8:	94001a05 	bl	98fc <_utee_cryp_obj_close>
/optee/optee_os/lib/libutee/tee_api_objects.c:302
    30ec:	34000060 	cbz	w0, 30f8 <TEE_CloseObject+0x1c>
/optee/optee_os/lib/libutee/tee_api_objects.c:304
    30f0:	a8c17bfd 	ldp	x29, x30, [sp], #16
/optee/optee_os/lib/libutee/tee_api_objects.c:303
    30f4:	140016b4 	b	8bc4 <TEE_Panic>
/optee/optee_os/lib/libutee/tee_api_objects.c:304
    30f8:	a8c17bfd 	ldp	x29, x30, [sp], #16
    30fc:	d65f03c0 	ret
    3100:	d65f03c0 	ret

0000000000003104 <__GP11_TEE_AllocateTransientObject>:
__GP11_TEE_AllocateTransientObject():
/optee/optee_os/lib/libutee/tee_api_objects.c:322
    3104:	a9bc7bfd 	stp	x29, x30, [sp, #-64]!
    3108:	d00000a3 	adrp	x3, 19000 <_DYNAMIC>
    310c:	910003fd 	mov	x29, sp
    3110:	f9409863 	ldr	x3, [x3, #304]
    3114:	a90153f3 	stp	x19, x20, [sp, #16]
    3118:	2a0003f3 	mov	w19, w0
    311c:	f90013f5 	str	x21, [sp, #32]
    3120:	aa0203f4 	mov	x20, x2
    3124:	2a0103f5 	mov	w21, w1
/optee/optee_os/lib/libutee/tee_api_objects.c:326
    3128:	d2800101 	mov	x1, #0x8                   	// #8
/optee/optee_os/lib/libutee/tee_api_objects.c:322
    312c:	f9400060 	ldr	x0, [x3]
    3130:	f9001fe0 	str	x0, [sp, #56]
    3134:	d2800000 	mov	x0, #0x0                   	// #0
/optee/optee_os/lib/libutee/tee_api_objects.c:326
    3138:	aa0203e0 	mov	x0, x2
    313c:	94001700 	bl	8d3c <__utee_check_out_annotation>
/optee/optee_os/lib/libutee/tee_api_objects.c:328
    3140:	2a1503e1 	mov	w1, w21
    3144:	2a1303e0 	mov	w0, w19
    3148:	9100d3e2 	add	x2, sp, #0x34
    314c:	940019e9 	bl	98f0 <_utee_cryp_obj_alloc>
/optee/optee_os/lib/libutee/tee_api_objects.c:330
    3150:	7100001f 	cmp	w0, #0x0
    3154:	129ffe61 	mov	w1, #0xffff000c            	// #-65524
/optee/optee_os/lib/libutee/tee_api_objects.c:328
    3158:	2a0003f3 	mov	w19, w0
/optee/optee_os/lib/libutee/tee_api_objects.c:330
    315c:	7a411004 	ccmp	w0, w1, #0x4, ne  // ne = any
    3160:	540001a0 	b.eq	3194 <__GP11_TEE_AllocateTransientObject+0x90>  // b.none
/optee/optee_os/lib/libutee/tee_api_objects.c:331
    3164:	129ffea1 	mov	w1, #0xffff000a            	// #-65526
    3168:	6b01001f 	cmp	w0, w1
    316c:	54000040 	b.eq	3174 <__GP11_TEE_AllocateTransientObject+0x70>  // b.none
/optee/optee_os/lib/libutee/tee_api_objects.c:333
    3170:	94001695 	bl	8bc4 <TEE_Panic>
/optee/optee_os/lib/libutee/tee_api_objects.c:339
    3174:	d00000a3 	adrp	x3, 19000 <_DYNAMIC>
    3178:	f9409863 	ldr	x3, [x3, #304]
    317c:	f9401fe0 	ldr	x0, [sp, #56]
    3180:	f9400061 	ldr	x1, [x3]
    3184:	eb010000 	subs	x0, x0, x1
    3188:	d2800001 	mov	x1, #0x0                   	// #0
    318c:	540000c0 	b.eq	31a4 <__GP11_TEE_AllocateTransientObject+0xa0>  // b.none
    3190:	97fff4eb 	bl	53c <__stack_chk_fail>
/optee/optee_os/lib/libutee/tee_api_objects.c:335
    3194:	35ffff00 	cbnz	w0, 3174 <__GP11_TEE_AllocateTransientObject+0x70>
/optee/optee_os/lib/libutee/tee_api_objects.c:336
    3198:	b94037e0 	ldr	w0, [sp, #52]
    319c:	f9000280 	str	x0, [x20]
/optee/optee_os/lib/libutee/tee_api_objects.c:338
    31a0:	17fffff5 	b	3174 <__GP11_TEE_AllocateTransientObject+0x70>
/optee/optee_os/lib/libutee/tee_api_objects.c:339
    31a4:	2a1303e0 	mov	w0, w19
    31a8:	a94153f3 	ldp	x19, x20, [sp, #16]
    31ac:	f94013f5 	ldr	x21, [sp, #32]
    31b0:	a8c47bfd 	ldp	x29, x30, [sp], #64
    31b4:	d65f03c0 	ret

00000000000031b8 <TEE_AllocateTransientObject>:
TEE_AllocateTransientObject():
/optee/optee_os/lib/libutee/tee_api_objects.c:312
    31b8:	528017e3 	mov	w3, #0xbf                  	// #191
    31bc:	72b40003 	movk	w3, #0xa000, lsl #16
    31c0:	6b03001f 	cmp	w0, w3
    31c4:	54000040 	b.eq	31cc <TEE_AllocateTransientObject+0x14>  // b.none
/optee/optee_os/lib/libutee/tee_api_objects.c:315
    31c8:	17ffffcf 	b	3104 <__GP11_TEE_AllocateTransientObject>
/optee/optee_os/lib/libutee/tee_api_objects.c:317
    31cc:	129ffea0 	mov	w0, #0xffff000a            	// #-65526
    31d0:	d65f03c0 	ret

00000000000031d4 <TEE_FreeTransientObject>:
TEE_FreeTransientObject():
/optee/optee_os/lib/libutee/tee_api_objects.c:342
    31d4:	a9bb7bfd 	stp	x29, x30, [sp, #-80]!
    31d8:	d00000a1 	adrp	x1, 19000 <_DYNAMIC>
    31dc:	910003fd 	mov	x29, sp
    31e0:	f9409821 	ldr	x1, [x1, #304]
    31e4:	f9000bf3 	str	x19, [sp, #16]
    31e8:	f9400022 	ldr	x2, [x1]
    31ec:	f90027e2 	str	x2, [sp, #72]
    31f0:	d2800002 	mov	x2, #0x0                   	// #0
/optee/optee_os/lib/libutee/tee_api_objects.c:343
    31f4:	a902ffff 	stp	xzr, xzr, [sp, #40]
    31f8:	f9001fff 	str	xzr, [sp, #56]
    31fc:	b90043ff 	str	wzr, [sp, #64]
/optee/optee_os/lib/libutee/tee_api_objects.c:346
    3200:	b40001c0 	cbz	x0, 3238 <TEE_FreeTransientObject+0x64>
    3204:	aa0003f3 	mov	x19, x0
/optee/optee_os/lib/libutee/tee_api_objects.c:349
    3208:	9100a3e1 	add	x1, sp, #0x28
    320c:	940019b0 	bl	98cc <_utee_cryp_obj_get_info>
/optee/optee_os/lib/libutee/tee_api_objects.c:350
    3210:	34000040 	cbz	w0, 3218 <TEE_FreeTransientObject+0x44>
/optee/optee_os/lib/libutee/tee_api_objects.c:351
    3214:	9400166c 	bl	8bc4 <TEE_Panic>
/optee/optee_os/lib/libutee/tee_api_objects.c:353
    3218:	b94043e0 	ldr	w0, [sp, #64]
    321c:	36800060 	tbz	w0, #16, 3228 <TEE_FreeTransientObject+0x54>
/optee/optee_os/lib/libutee/tee_api_objects.c:354
    3220:	52800000 	mov	w0, #0x0                   	// #0
    3224:	94001668 	bl	8bc4 <TEE_Panic>
/optee/optee_os/lib/libutee/tee_api_objects.c:356
    3228:	aa1303e0 	mov	x0, x19
    322c:	940019b4 	bl	98fc <_utee_cryp_obj_close>
/optee/optee_os/lib/libutee/tee_api_objects.c:357
    3230:	34000040 	cbz	w0, 3238 <TEE_FreeTransientObject+0x64>
/optee/optee_os/lib/libutee/tee_api_objects.c:358
    3234:	94001664 	bl	8bc4 <TEE_Panic>
/optee/optee_os/lib/libutee/tee_api_objects.c:359
    3238:	d00000a1 	adrp	x1, 19000 <_DYNAMIC>
    323c:	f9409821 	ldr	x1, [x1, #304]
    3240:	f94027e0 	ldr	x0, [sp, #72]
    3244:	f9400022 	ldr	x2, [x1]
    3248:	eb020000 	subs	x0, x0, x2
    324c:	d2800002 	mov	x2, #0x0                   	// #0
    3250:	54000040 	b.eq	3258 <TEE_FreeTransientObject+0x84>  // b.none
    3254:	97fff4ba 	bl	53c <__stack_chk_fail>
    3258:	f9400bf3 	ldr	x19, [sp, #16]
    325c:	a8c57bfd 	ldp	x29, x30, [sp], #80
    3260:	d65f03c0 	ret

0000000000003264 <TEE_ResetTransientObject>:
TEE_ResetTransientObject():
/optee/optee_os/lib/libutee/tee_api_objects.c:362
    3264:	a9bb7bfd 	stp	x29, x30, [sp, #-80]!
    3268:	d00000a1 	adrp	x1, 19000 <_DYNAMIC>
    326c:	910003fd 	mov	x29, sp
    3270:	f9409821 	ldr	x1, [x1, #304]
    3274:	f9000bf3 	str	x19, [sp, #16]
    3278:	f9400022 	ldr	x2, [x1]
    327c:	f90027e2 	str	x2, [sp, #72]
    3280:	d2800002 	mov	x2, #0x0                   	// #0
/optee/optee_os/lib/libutee/tee_api_objects.c:363
    3284:	a902ffff 	stp	xzr, xzr, [sp, #40]
    3288:	f9001fff 	str	xzr, [sp, #56]
    328c:	b90043ff 	str	wzr, [sp, #64]
/optee/optee_os/lib/libutee/tee_api_objects.c:366
    3290:	b40001c0 	cbz	x0, 32c8 <TEE_ResetTransientObject+0x64>
    3294:	aa0003f3 	mov	x19, x0
/optee/optee_os/lib/libutee/tee_api_objects.c:369
    3298:	9100a3e1 	add	x1, sp, #0x28
    329c:	9400198c 	bl	98cc <_utee_cryp_obj_get_info>
/optee/optee_os/lib/libutee/tee_api_objects.c:370
    32a0:	34000040 	cbz	w0, 32a8 <TEE_ResetTransientObject+0x44>
/optee/optee_os/lib/libutee/tee_api_objects.c:371
    32a4:	94001648 	bl	8bc4 <TEE_Panic>
/optee/optee_os/lib/libutee/tee_api_objects.c:373
    32a8:	b94043e0 	ldr	w0, [sp, #64]
    32ac:	36800060 	tbz	w0, #16, 32b8 <TEE_ResetTransientObject+0x54>
/optee/optee_os/lib/libutee/tee_api_objects.c:374
    32b0:	52800000 	mov	w0, #0x0                   	// #0
    32b4:	94001644 	bl	8bc4 <TEE_Panic>
/optee/optee_os/lib/libutee/tee_api_objects.c:376
    32b8:	aa1303e0 	mov	x0, x19
